

Microchip Technology PIC LITE Macro Assembler V2.00 build -1524193055 
                                                                                               Thu Nov 15 19:11:29 2018

Microchip Technology Omniscient Code Generator v2.00 (Free mode) build 20180527130849
     1  0000                     
      + 0000                     
     2                           ; Version 2.00
     3                           ; Generated 27/05/2018 GMT
     4                           
     5                           ; 
     6                           ; Copyright © 2018, Microchip Technology Inc. and its subsidiaries ("Microchip")
     7                           ; All rights reserved.
     8                           ; 
     9                           ; This software is developed by Microchip Technology Inc. and its subsidiaries ("Microch
                                 ip").
    10                           ; 
    11                           ; Redistribution and use in source and binary forms, with or without modification, are
    12                           ; permitted provided that the following conditions are met:
    13                           ; 
    14                           ;     1. Redistributions of source code must retain the above copyright notice, this lis
                                 t of
    15                           ;        conditions and the following disclaimer.
    16                           ; 
    17                           ;     2. Redistributions in binary form must reproduce the above copyright notice, this 
                                 list
    18                           ;        of conditions and the following disclaimer in the documentation and/or other
    19                           ;        materials provided with the distribution.
    20                           ; 
    21                           ;     3. Microchip's name may not be used to endorse or promote products derived from th
                                 is
    22                           ;        software without specific prior written permission.
    23                           ; 
    24                           ; THIS SOFTWARE IS PROVIDED BY MICROCHIP "AS IS" AND ANY EXPRESS OR IMPLIED WARRANTIES,

    25                           ; INCLUDING, BUT NOT LIMITED TO, THE IMPLIED WARRANTIES OF MERCHANTABILITY AND FITNESS F
                                 OR
    26                           ; PURPOSE ARE DISCLAIMED.  IN NO EVENT SHALL MICROCHIP BE LIABLE FOR ANY DIRECT, INDIREC
                                 T,
    27                           ; INCIDENTAL, SPECIAL, EXEMPLARY, OR CONSEQUENTIAL DAMAGES (INCLUDING BUT NOT LIMITED TO
                                 
    28                           ; PROCUREMENT OF SUBSTITUTE GOODS OR SERVICES; LOSS OF USE, DATA OR PROFITS; OR BUSINESS
                                 
    29                           ; INTERRUPTION) HOWSOEVER CAUSED AND ON ANY THEORY OF LIABILITY, WHETHER IN CONTRACT, ST
                                 RICT
    30                           ; LIABILITY, OR TORT (INCLUDING NEGLIGENCE OR OTHERWISE) ARISING IN ANY WAY OUT OF THE U
                                 SE OF
    31                           ; THIS SOFTWARE, EVEN IF ADVISED OF THE POSSIBILITY OF SUCH DAMAGE.
    32                           ; 
    33                           
    34                           
    35                           ; 
    36                           ; Code-generator required, PIC16F877 Definitions
    37                           ; 
    38  0004                     fsr0 equ 04h
    39  0004                     indf equ 00h
    40  0000                     indf0 equ 00h
    41  0000                     pc equ 02h
    42  0002                     pcl equ 02h
    43  0002                     pclath equ 0Ah
    44  000A                     status equ 03h
    45  0003                     
     2                           opt pagewidth 120
     3  0000                     byte0	macro	val
     4                           	(getbyte(val,0))
     5                           endm
     6  0000                     byte1	macro	val
     7                           	(getbyte(val,1))
     8                           endm
     9  0000                     byte2	macro	val
    10                           	(getbyte(val,2))
    11                           endm
    12  0000                     byte3	macro	val
    13                           	(getbyte(val,3))
    14                           endm
    15  0000                     byte4	macro	val
    16                           	(getbyte(val,4))
    17                           endm
    18  0000                     byte5	macro	val
    19                           	(getbyte(val,5))
    20                           endm
    21  0000                     byte6	macro	val
    22                           	(getbyte(val,6))
    23                           endm
    24  0000                     byte7	macro	val
    25                           	(getbyte(val,7))
    26                           endm
    27  0000                     getword	macro	val,pos
    28                           	(((val) >> (8 * pos)) and 0xffff)
    29                           endm
    30  0000                     word0	macro	val
    31                           	(getword(val,0))
    32                           endm
    33  0000                     word1	macro	val
    34                           	(getword(val,2))
    35                           endm
    36  0000                     word2	macro	val
    37                           	(getword(val,4))
    38                           endm
    39  0000                     word3	macro	val
    40                           	(getword(val,6))
    41                           endm
    42  0000                     gettword	macro	val,pos
    43                           	(((val) >> (8 * pos)) and 0xffffff)
    44                           endm
    45  0000                     tword0	macro	val
    46                           	(gettword(val,0))
    47                           endm
    48  0000                     tword1	macro	val
    49                           	(gettword(val,3))
    50                           endm
    51  0000                     tword2	macro	val
    52                           	(gettword(val,6))
    53                           endm
    54  0000                     getdword	macro	val,pos
    55                           	(((val) >> (8 * pos)) and 0xffffffff)
    56                           endm
    57  0000                     dword0	macro	val
    58                           	(getdword(val,0))
    59                           endm
    60  0000                     dword1	macro	val
    61                           	(getdword(val,4))
    62                           endm
    63  0000                     clrc	macro
    64                           	bcf	3,0
    65                           	endm
    66  0000                     clrz	macro
    67                           	bcf	3,2
    68                           	endm
    69  0000                     setc	macro
    70                           	bsf	3,0
    71                           	endm
    72  0000                     setz	macro
    73                           	bsf	3,2
    74                           	endm
    75  0000                     skipc	macro
    76                           	btfss	3,0
    77                           	endm
    78  0000                     skipz	macro
    79                           	btfss	3,2
    80                           	endm
    81  0000                     skipnc	macro
    82                           	btfsc	3,0
    83                           	endm
    84  0000                     skipnz	macro
    85                           	btfsc	3,2
    86                           	endm
    87  0000                     # 54 "C:\Program Files (x86)\Microchip\xc8\v2.00\pic\include\pic16f877.h"
    88                           INDF equ 00h ;# 
    89  0000                     # 61 "C:\Program Files (x86)\Microchip\xc8\v2.00\pic\include\pic16f877.h"
    90                           TMR0 equ 01h ;# 
    91  0001                     # 68 "C:\Program Files (x86)\Microchip\xc8\v2.00\pic\include\pic16f877.h"
    92                           PCL equ 02h ;# 
    93  0002                     # 75 "C:\Program Files (x86)\Microchip\xc8\v2.00\pic\include\pic16f877.h"
    94                           STATUS equ 03h ;# 
    95  0003                     # 161 "C:\Program Files (x86)\Microchip\xc8\v2.00\pic\include\pic16f877.h"
    96                           FSR equ 04h ;# 
    97  0004                     # 168 "C:\Program Files (x86)\Microchip\xc8\v2.00\pic\include\pic16f877.h"
    98                           PORTA equ 05h ;# 
    99  0005                     # 218 "C:\Program Files (x86)\Microchip\xc8\v2.00\pic\include\pic16f877.h"
   100                           PORTB equ 06h ;# 
   101  0006                     # 280 "C:\Program Files (x86)\Microchip\xc8\v2.00\pic\include\pic16f877.h"
   102                           PORTC equ 07h ;# 
   103  0007                     # 342 "C:\Program Files (x86)\Microchip\xc8\v2.00\pic\include\pic16f877.h"
   104                           PORTD equ 08h ;# 
   105  0008                     # 404 "C:\Program Files (x86)\Microchip\xc8\v2.00\pic\include\pic16f877.h"
   106                           PORTE equ 09h ;# 
   107  0009                     # 436 "C:\Program Files (x86)\Microchip\xc8\v2.00\pic\include\pic16f877.h"
   108                           PCLATH equ 0Ah ;# 
   109  000A                     # 456 "C:\Program Files (x86)\Microchip\xc8\v2.00\pic\include\pic16f877.h"
   110                           INTCON equ 0Bh ;# 
   111  000B                     # 534 "C:\Program Files (x86)\Microchip\xc8\v2.00\pic\include\pic16f877.h"
   112                           PIR1 equ 0Ch ;# 
   113  000C                     # 596 "C:\Program Files (x86)\Microchip\xc8\v2.00\pic\include\pic16f877.h"
   114                           PIR2 equ 0Dh ;# 
   115  000D                     # 629 "C:\Program Files (x86)\Microchip\xc8\v2.00\pic\include\pic16f877.h"
   116                           TMR1 equ 0Eh ;# 
   117  000E                     # 636 "C:\Program Files (x86)\Microchip\xc8\v2.00\pic\include\pic16f877.h"
   118                           TMR1L equ 0Eh ;# 
   119  000E                     # 643 "C:\Program Files (x86)\Microchip\xc8\v2.00\pic\include\pic16f877.h"
   120                           TMR1H equ 0Fh ;# 
   121  000F                     # 650 "C:\Program Files (x86)\Microchip\xc8\v2.00\pic\include\pic16f877.h"
   122                           T1CON equ 010h ;# 
   123  0010                     # 727 "C:\Program Files (x86)\Microchip\xc8\v2.00\pic\include\pic16f877.h"
   124                           TMR2 equ 011h ;# 
   125  0011                     # 734 "C:\Program Files (x86)\Microchip\xc8\v2.00\pic\include\pic16f877.h"
   126                           T2CON equ 012h ;# 
   127  0012                     # 805 "C:\Program Files (x86)\Microchip\xc8\v2.00\pic\include\pic16f877.h"
   128                           SSPBUF equ 013h ;# 
   129  0013                     # 812 "C:\Program Files (x86)\Microchip\xc8\v2.00\pic\include\pic16f877.h"
   130                           SSPCON equ 014h ;# 
   131  0014                     # 882 "C:\Program Files (x86)\Microchip\xc8\v2.00\pic\include\pic16f877.h"
   132                           CCPR1 equ 015h ;# 
   133  0015                     # 889 "C:\Program Files (x86)\Microchip\xc8\v2.00\pic\include\pic16f877.h"
   134                           CCPR1L equ 015h ;# 
   135  0015                     # 896 "C:\Program Files (x86)\Microchip\xc8\v2.00\pic\include\pic16f877.h"
   136                           CCPR1H equ 016h ;# 
   137  0016                     # 903 "C:\Program Files (x86)\Microchip\xc8\v2.00\pic\include\pic16f877.h"
   138                           CCP1CON equ 017h ;# 
   139  0017                     # 961 "C:\Program Files (x86)\Microchip\xc8\v2.00\pic\include\pic16f877.h"
   140                           RCSTA equ 018h ;# 
   141  0018                     # 1056 "C:\Program Files (x86)\Microchip\xc8\v2.00\pic\include\pic16f877.h"
   142                           TXREG equ 019h ;# 
   143  0019                     # 1063 "C:\Program Files (x86)\Microchip\xc8\v2.00\pic\include\pic16f877.h"
   144                           RCREG equ 01Ah ;# 
   145  001A                     # 1070 "C:\Program Files (x86)\Microchip\xc8\v2.00\pic\include\pic16f877.h"
   146                           CCPR2 equ 01Bh ;# 
   147  001B                     # 1077 "C:\Program Files (x86)\Microchip\xc8\v2.00\pic\include\pic16f877.h"
   148                           CCPR2L equ 01Bh ;# 
   149  001B                     # 1084 "C:\Program Files (x86)\Microchip\xc8\v2.00\pic\include\pic16f877.h"
   150                           CCPR2H equ 01Ch ;# 
   151  001C                     # 1091 "C:\Program Files (x86)\Microchip\xc8\v2.00\pic\include\pic16f877.h"
   152                           CCP2CON equ 01Dh ;# 
   153  001D                     # 1149 "C:\Program Files (x86)\Microchip\xc8\v2.00\pic\include\pic16f877.h"
   154                           ADRESH equ 01Eh ;# 
   155  001E                     # 1156 "C:\Program Files (x86)\Microchip\xc8\v2.00\pic\include\pic16f877.h"
   156                           ADCON0 equ 01Fh ;# 
   157  001F                     # 1252 "C:\Program Files (x86)\Microchip\xc8\v2.00\pic\include\pic16f877.h"
   158                           OPTION_REG equ 081h ;# 
   159  0081                     # 1322 "C:\Program Files (x86)\Microchip\xc8\v2.00\pic\include\pic16f877.h"
   160                           TRISA equ 085h ;# 
   161  0085                     # 1372 "C:\Program Files (x86)\Microchip\xc8\v2.00\pic\include\pic16f877.h"
   162                           TRISB equ 086h ;# 
   163  0086                     # 1434 "C:\Program Files (x86)\Microchip\xc8\v2.00\pic\include\pic16f877.h"
   164                           TRISC equ 087h ;# 
   165  0087                     # 1496 "C:\Program Files (x86)\Microchip\xc8\v2.00\pic\include\pic16f877.h"
   166                           TRISD equ 088h ;# 
   167  0088                     # 1558 "C:\Program Files (x86)\Microchip\xc8\v2.00\pic\include\pic16f877.h"
   168                           TRISE equ 089h ;# 
   169  0089                     # 1615 "C:\Program Files (x86)\Microchip\xc8\v2.00\pic\include\pic16f877.h"
   170                           PIE1 equ 08Ch ;# 
   171  008C                     # 1677 "C:\Program Files (x86)\Microchip\xc8\v2.00\pic\include\pic16f877.h"
   172                           PIE2 equ 08Dh ;# 
   173  008D                     # 1710 "C:\Program Files (x86)\Microchip\xc8\v2.00\pic\include\pic16f877.h"
   174                           PCON equ 08Eh ;# 
   175  008E                     # 1744 "C:\Program Files (x86)\Microchip\xc8\v2.00\pic\include\pic16f877.h"
   176                           SSPCON2 equ 091h ;# 
   177  0091                     # 1806 "C:\Program Files (x86)\Microchip\xc8\v2.00\pic\include\pic16f877.h"
   178                           PR2 equ 092h ;# 
   179  0092                     # 1813 "C:\Program Files (x86)\Microchip\xc8\v2.00\pic\include\pic16f877.h"
   180                           SSPADD equ 093h ;# 
   181  0093                     # 1820 "C:\Program Files (x86)\Microchip\xc8\v2.00\pic\include\pic16f877.h"
   182                           SSPSTAT equ 094h ;# 
   183  0094                     # 1989 "C:\Program Files (x86)\Microchip\xc8\v2.00\pic\include\pic16f877.h"
   184                           TXSTA equ 098h ;# 
   185  0098                     # 2070 "C:\Program Files (x86)\Microchip\xc8\v2.00\pic\include\pic16f877.h"
   186                           SPBRG equ 099h ;# 
   187  0099                     # 2077 "C:\Program Files (x86)\Microchip\xc8\v2.00\pic\include\pic16f877.h"
   188                           ADRESL equ 09Eh ;# 
   189  009E                     # 2084 "C:\Program Files (x86)\Microchip\xc8\v2.00\pic\include\pic16f877.h"
   190                           ADCON1 equ 09Fh ;# 
   191  009F                     # 2137 "C:\Program Files (x86)\Microchip\xc8\v2.00\pic\include\pic16f877.h"
   192                           EEDATA equ 010Ch ;# 
   193  010C                     # 2144 "C:\Program Files (x86)\Microchip\xc8\v2.00\pic\include\pic16f877.h"
   194                           EEADR equ 010Dh ;# 
   195  010D                     # 2151 "C:\Program Files (x86)\Microchip\xc8\v2.00\pic\include\pic16f877.h"
   196                           EEDATH equ 010Eh ;# 
   197  010E                     # 2158 "C:\Program Files (x86)\Microchip\xc8\v2.00\pic\include\pic16f877.h"
   198                           EEADRH equ 010Fh ;# 
   199  010F                     # 2165 "C:\Program Files (x86)\Microchip\xc8\v2.00\pic\include\pic16f877.h"
   200                           EECON1 equ 018Ch ;# 
   201  018C                     # 2210 "C:\Program Files (x86)\Microchip\xc8\v2.00\pic\include\pic16f877.h"
   202                           EECON2 equ 018Dh ;# 
   203  018D                     # 54 "C:\Program Files (x86)\Microchip\xc8\v2.00\pic\include\pic16f877.h"
   204                           INDF equ 00h ;# 
   205  0000                     # 61 "C:\Program Files (x86)\Microchip\xc8\v2.00\pic\include\pic16f877.h"
   206                           TMR0 equ 01h ;# 
   207  0001                     # 68 "C:\Program Files (x86)\Microchip\xc8\v2.00\pic\include\pic16f877.h"
   208                           PCL equ 02h ;# 
   209  0002                     # 75 "C:\Program Files (x86)\Microchip\xc8\v2.00\pic\include\pic16f877.h"
   210                           STATUS equ 03h ;# 
   211  0003                     # 161 "C:\Program Files (x86)\Microchip\xc8\v2.00\pic\include\pic16f877.h"
   212                           FSR equ 04h ;# 
   213  0004                     # 168 "C:\Program Files (x86)\Microchip\xc8\v2.00\pic\include\pic16f877.h"
   214                           PORTA equ 05h ;# 
   215  0005                     # 218 "C:\Program Files (x86)\Microchip\xc8\v2.00\pic\include\pic16f877.h"
   216                           PORTB equ 06h ;# 
   217  0006                     # 280 "C:\Program Files (x86)\Microchip\xc8\v2.00\pic\include\pic16f877.h"
   218                           PORTC equ 07h ;# 
   219  0007                     # 342 "C:\Program Files (x86)\Microchip\xc8\v2.00\pic\include\pic16f877.h"
   220                           PORTD equ 08h ;# 
   221  0008                     # 404 "C:\Program Files (x86)\Microchip\xc8\v2.00\pic\include\pic16f877.h"
   222                           PORTE equ 09h ;# 
   223  0009                     # 436 "C:\Program Files (x86)\Microchip\xc8\v2.00\pic\include\pic16f877.h"
   224                           PCLATH equ 0Ah ;# 
   225  000A                     # 456 "C:\Program Files (x86)\Microchip\xc8\v2.00\pic\include\pic16f877.h"
   226                           INTCON equ 0Bh ;# 
   227  000B                     # 534 "C:\Program Files (x86)\Microchip\xc8\v2.00\pic\include\pic16f877.h"
   228                           PIR1 equ 0Ch ;# 
   229  000C                     # 596 "C:\Program Files (x86)\Microchip\xc8\v2.00\pic\include\pic16f877.h"
   230                           PIR2 equ 0Dh ;# 
   231  000D                     # 629 "C:\Program Files (x86)\Microchip\xc8\v2.00\pic\include\pic16f877.h"
   232                           TMR1 equ 0Eh ;# 
   233  000E                     # 636 "C:\Program Files (x86)\Microchip\xc8\v2.00\pic\include\pic16f877.h"
   234                           TMR1L equ 0Eh ;# 
   235  000E                     # 643 "C:\Program Files (x86)\Microchip\xc8\v2.00\pic\include\pic16f877.h"
   236                           TMR1H equ 0Fh ;# 
   237  000F                     # 650 "C:\Program Files (x86)\Microchip\xc8\v2.00\pic\include\pic16f877.h"
   238                           T1CON equ 010h ;# 
   239  0010                     # 727 "C:\Program Files (x86)\Microchip\xc8\v2.00\pic\include\pic16f877.h"
   240                           TMR2 equ 011h ;# 
   241  0011                     # 734 "C:\Program Files (x86)\Microchip\xc8\v2.00\pic\include\pic16f877.h"
   242                           T2CON equ 012h ;# 
   243  0012                     # 805 "C:\Program Files (x86)\Microchip\xc8\v2.00\pic\include\pic16f877.h"
   244                           SSPBUF equ 013h ;# 
   245  0013                     # 812 "C:\Program Files (x86)\Microchip\xc8\v2.00\pic\include\pic16f877.h"
   246                           SSPCON equ 014h ;# 
   247  0014                     # 882 "C:\Program Files (x86)\Microchip\xc8\v2.00\pic\include\pic16f877.h"
   248                           CCPR1 equ 015h ;# 
   249  0015                     # 889 "C:\Program Files (x86)\Microchip\xc8\v2.00\pic\include\pic16f877.h"
   250                           CCPR1L equ 015h ;# 
   251  0015                     # 896 "C:\Program Files (x86)\Microchip\xc8\v2.00\pic\include\pic16f877.h"
   252                           CCPR1H equ 016h ;# 
   253  0016                     # 903 "C:\Program Files (x86)\Microchip\xc8\v2.00\pic\include\pic16f877.h"
   254                           CCP1CON equ 017h ;# 
   255  0017                     # 961 "C:\Program Files (x86)\Microchip\xc8\v2.00\pic\include\pic16f877.h"
   256                           RCSTA equ 018h ;# 
   257  0018                     # 1056 "C:\Program Files (x86)\Microchip\xc8\v2.00\pic\include\pic16f877.h"
   258                           TXREG equ 019h ;# 
   259  0019                     # 1063 "C:\Program Files (x86)\Microchip\xc8\v2.00\pic\include\pic16f877.h"
   260                           RCREG equ 01Ah ;# 
   261  001A                     # 1070 "C:\Program Files (x86)\Microchip\xc8\v2.00\pic\include\pic16f877.h"
   262                           CCPR2 equ 01Bh ;# 
   263  001B                     # 1077 "C:\Program Files (x86)\Microchip\xc8\v2.00\pic\include\pic16f877.h"
   264                           CCPR2L equ 01Bh ;# 
   265  001B                     # 1084 "C:\Program Files (x86)\Microchip\xc8\v2.00\pic\include\pic16f877.h"
   266                           CCPR2H equ 01Ch ;# 
   267  001C                     # 1091 "C:\Program Files (x86)\Microchip\xc8\v2.00\pic\include\pic16f877.h"
   268                           CCP2CON equ 01Dh ;# 
   269  001D                     # 1149 "C:\Program Files (x86)\Microchip\xc8\v2.00\pic\include\pic16f877.h"
   270                           ADRESH equ 01Eh ;# 
   271  001E                     # 1156 "C:\Program Files (x86)\Microchip\xc8\v2.00\pic\include\pic16f877.h"
   272                           ADCON0 equ 01Fh ;# 
   273  001F                     # 1252 "C:\Program Files (x86)\Microchip\xc8\v2.00\pic\include\pic16f877.h"
   274                           OPTION_REG equ 081h ;# 
   275  0081                     # 1322 "C:\Program Files (x86)\Microchip\xc8\v2.00\pic\include\pic16f877.h"
   276                           TRISA equ 085h ;# 
   277  0085                     # 1372 "C:\Program Files (x86)\Microchip\xc8\v2.00\pic\include\pic16f877.h"
   278                           TRISB equ 086h ;# 
   279  0086                     # 1434 "C:\Program Files (x86)\Microchip\xc8\v2.00\pic\include\pic16f877.h"
   280                           TRISC equ 087h ;# 
   281  0087                     # 1496 "C:\Program Files (x86)\Microchip\xc8\v2.00\pic\include\pic16f877.h"
   282                           TRISD equ 088h ;# 
   283  0088                     # 1558 "C:\Program Files (x86)\Microchip\xc8\v2.00\pic\include\pic16f877.h"
   284                           TRISE equ 089h ;# 
   285  0089                     # 1615 "C:\Program Files (x86)\Microchip\xc8\v2.00\pic\include\pic16f877.h"
   286                           PIE1 equ 08Ch ;# 
   287  008C                     # 1677 "C:\Program Files (x86)\Microchip\xc8\v2.00\pic\include\pic16f877.h"
   288                           PIE2 equ 08Dh ;# 
   289  008D                     # 1710 "C:\Program Files (x86)\Microchip\xc8\v2.00\pic\include\pic16f877.h"
   290                           PCON equ 08Eh ;# 
   291  008E                     # 1744 "C:\Program Files (x86)\Microchip\xc8\v2.00\pic\include\pic16f877.h"
   292                           SSPCON2 equ 091h ;# 
   293  0091                     # 1806 "C:\Program Files (x86)\Microchip\xc8\v2.00\pic\include\pic16f877.h"
   294                           PR2 equ 092h ;# 
   295  0092                     # 1813 "C:\Program Files (x86)\Microchip\xc8\v2.00\pic\include\pic16f877.h"
   296                           SSPADD equ 093h ;# 
   297  0093                     # 1820 "C:\Program Files (x86)\Microchip\xc8\v2.00\pic\include\pic16f877.h"
   298                           SSPSTAT equ 094h ;# 
   299  0094                     # 1989 "C:\Program Files (x86)\Microchip\xc8\v2.00\pic\include\pic16f877.h"
   300                           TXSTA equ 098h ;# 
   301  0098                     # 2070 "C:\Program Files (x86)\Microchip\xc8\v2.00\pic\include\pic16f877.h"
   302                           SPBRG equ 099h ;# 
   303  0099                     # 2077 "C:\Program Files (x86)\Microchip\xc8\v2.00\pic\include\pic16f877.h"
   304                           ADRESL equ 09Eh ;# 
   305  009E                     # 2084 "C:\Program Files (x86)\Microchip\xc8\v2.00\pic\include\pic16f877.h"
   306                           ADCON1 equ 09Fh ;# 
   307  009F                     # 2137 "C:\Program Files (x86)\Microchip\xc8\v2.00\pic\include\pic16f877.h"
   308                           EEDATA equ 010Ch ;# 
   309  010C                     # 2144 "C:\Program Files (x86)\Microchip\xc8\v2.00\pic\include\pic16f877.h"
   310                           EEADR equ 010Dh ;# 
   311  010D                     # 2151 "C:\Program Files (x86)\Microchip\xc8\v2.00\pic\include\pic16f877.h"
   312                           EEDATH equ 010Eh ;# 
   313  010E                     # 2158 "C:\Program Files (x86)\Microchip\xc8\v2.00\pic\include\pic16f877.h"
   314                           EEADRH equ 010Fh ;# 
   315  010F                     # 2165 "C:\Program Files (x86)\Microchip\xc8\v2.00\pic\include\pic16f877.h"
   316                           EECON1 equ 018Ch ;# 
   317  018C                     # 2210 "C:\Program Files (x86)\Microchip\xc8\v2.00\pic\include\pic16f877.h"
   318                           EECON2 equ 018Dh ;# 
   319  018D                     # 54 "C:\Program Files (x86)\Microchip\xc8\v2.00\pic\include\pic16f877.h"
   320                           INDF equ 00h ;# 
   321  0000                     # 61 "C:\Program Files (x86)\Microchip\xc8\v2.00\pic\include\pic16f877.h"
   322                           TMR0 equ 01h ;# 
   323  0001                     # 68 "C:\Program Files (x86)\Microchip\xc8\v2.00\pic\include\pic16f877.h"
   324                           PCL equ 02h ;# 
   325  0002                     # 75 "C:\Program Files (x86)\Microchip\xc8\v2.00\pic\include\pic16f877.h"
   326                           STATUS equ 03h ;# 
   327  0003                     # 161 "C:\Program Files (x86)\Microchip\xc8\v2.00\pic\include\pic16f877.h"
   328                           FSR equ 04h ;# 
   329  0004                     # 168 "C:\Program Files (x86)\Microchip\xc8\v2.00\pic\include\pic16f877.h"
   330                           PORTA equ 05h ;# 
   331  0005                     # 218 "C:\Program Files (x86)\Microchip\xc8\v2.00\pic\include\pic16f877.h"
   332                           PORTB equ 06h ;# 
   333  0006                     # 280 "C:\Program Files (x86)\Microchip\xc8\v2.00\pic\include\pic16f877.h"
   334                           PORTC equ 07h ;# 
   335  0007                     # 342 "C:\Program Files (x86)\Microchip\xc8\v2.00\pic\include\pic16f877.h"
   336                           PORTD equ 08h ;# 
   337  0008                     # 404 "C:\Program Files (x86)\Microchip\xc8\v2.00\pic\include\pic16f877.h"
   338                           PORTE equ 09h ;# 
   339  0009                     # 436 "C:\Program Files (x86)\Microchip\xc8\v2.00\pic\include\pic16f877.h"
   340                           PCLATH equ 0Ah ;# 
   341  000A                     # 456 "C:\Program Files (x86)\Microchip\xc8\v2.00\pic\include\pic16f877.h"
   342                           INTCON equ 0Bh ;# 
   343  000B                     # 534 "C:\Program Files (x86)\Microchip\xc8\v2.00\pic\include\pic16f877.h"
   344                           PIR1 equ 0Ch ;# 
   345  000C                     # 596 "C:\Program Files (x86)\Microchip\xc8\v2.00\pic\include\pic16f877.h"
   346                           PIR2 equ 0Dh ;# 
   347  000D                     # 629 "C:\Program Files (x86)\Microchip\xc8\v2.00\pic\include\pic16f877.h"
   348                           TMR1 equ 0Eh ;# 
   349  000E                     # 636 "C:\Program Files (x86)\Microchip\xc8\v2.00\pic\include\pic16f877.h"
   350                           TMR1L equ 0Eh ;# 
   351  000E                     # 643 "C:\Program Files (x86)\Microchip\xc8\v2.00\pic\include\pic16f877.h"
   352                           TMR1H equ 0Fh ;# 
   353  000F                     # 650 "C:\Program Files (x86)\Microchip\xc8\v2.00\pic\include\pic16f877.h"
   354                           T1CON equ 010h ;# 
   355  0010                     # 727 "C:\Program Files (x86)\Microchip\xc8\v2.00\pic\include\pic16f877.h"
   356                           TMR2 equ 011h ;# 
   357  0011                     # 734 "C:\Program Files (x86)\Microchip\xc8\v2.00\pic\include\pic16f877.h"
   358                           T2CON equ 012h ;# 
   359  0012                     # 805 "C:\Program Files (x86)\Microchip\xc8\v2.00\pic\include\pic16f877.h"
   360                           SSPBUF equ 013h ;# 
   361  0013                     # 812 "C:\Program Files (x86)\Microchip\xc8\v2.00\pic\include\pic16f877.h"
   362                           SSPCON equ 014h ;# 
   363  0014                     # 882 "C:\Program Files (x86)\Microchip\xc8\v2.00\pic\include\pic16f877.h"
   364                           CCPR1 equ 015h ;# 
   365  0015                     # 889 "C:\Program Files (x86)\Microchip\xc8\v2.00\pic\include\pic16f877.h"
   366                           CCPR1L equ 015h ;# 
   367  0015                     # 896 "C:\Program Files (x86)\Microchip\xc8\v2.00\pic\include\pic16f877.h"
   368                           CCPR1H equ 016h ;# 
   369  0016                     # 903 "C:\Program Files (x86)\Microchip\xc8\v2.00\pic\include\pic16f877.h"
   370                           CCP1CON equ 017h ;# 
   371  0017                     # 961 "C:\Program Files (x86)\Microchip\xc8\v2.00\pic\include\pic16f877.h"
   372                           RCSTA equ 018h ;# 
   373  0018                     # 1056 "C:\Program Files (x86)\Microchip\xc8\v2.00\pic\include\pic16f877.h"
   374                           TXREG equ 019h ;# 
   375  0019                     # 1063 "C:\Program Files (x86)\Microchip\xc8\v2.00\pic\include\pic16f877.h"
   376                           RCREG equ 01Ah ;# 
   377  001A                     # 1070 "C:\Program Files (x86)\Microchip\xc8\v2.00\pic\include\pic16f877.h"
   378                           CCPR2 equ 01Bh ;# 
   379  001B                     # 1077 "C:\Program Files (x86)\Microchip\xc8\v2.00\pic\include\pic16f877.h"
   380                           CCPR2L equ 01Bh ;# 
   381  001B                     # 1084 "C:\Program Files (x86)\Microchip\xc8\v2.00\pic\include\pic16f877.h"
   382                           CCPR2H equ 01Ch ;# 
   383  001C                     # 1091 "C:\Program Files (x86)\Microchip\xc8\v2.00\pic\include\pic16f877.h"
   384                           CCP2CON equ 01Dh ;# 
   385  001D                     # 1149 "C:\Program Files (x86)\Microchip\xc8\v2.00\pic\include\pic16f877.h"
   386                           ADRESH equ 01Eh ;# 
   387  001E                     # 1156 "C:\Program Files (x86)\Microchip\xc8\v2.00\pic\include\pic16f877.h"
   388                           ADCON0 equ 01Fh ;# 
   389  001F                     # 1252 "C:\Program Files (x86)\Microchip\xc8\v2.00\pic\include\pic16f877.h"
   390                           OPTION_REG equ 081h ;# 
   391  0081                     # 1322 "C:\Program Files (x86)\Microchip\xc8\v2.00\pic\include\pic16f877.h"
   392                           TRISA equ 085h ;# 
   393  0085                     # 1372 "C:\Program Files (x86)\Microchip\xc8\v2.00\pic\include\pic16f877.h"
   394                           TRISB equ 086h ;# 
   395  0086                     # 1434 "C:\Program Files (x86)\Microchip\xc8\v2.00\pic\include\pic16f877.h"
   396                           TRISC equ 087h ;# 
   397  0087                     # 1496 "C:\Program Files (x86)\Microchip\xc8\v2.00\pic\include\pic16f877.h"
   398                           TRISD equ 088h ;# 
   399  0088                     # 1558 "C:\Program Files (x86)\Microchip\xc8\v2.00\pic\include\pic16f877.h"
   400                           TRISE equ 089h ;# 
   401  0089                     # 1615 "C:\Program Files (x86)\Microchip\xc8\v2.00\pic\include\pic16f877.h"
   402                           PIE1 equ 08Ch ;# 
   403  008C                     # 1677 "C:\Program Files (x86)\Microchip\xc8\v2.00\pic\include\pic16f877.h"
   404                           PIE2 equ 08Dh ;# 
   405  008D                     # 1710 "C:\Program Files (x86)\Microchip\xc8\v2.00\pic\include\pic16f877.h"
   406                           PCON equ 08Eh ;# 
   407  008E                     # 1744 "C:\Program Files (x86)\Microchip\xc8\v2.00\pic\include\pic16f877.h"
   408                           SSPCON2 equ 091h ;# 
   409  0091                     # 1806 "C:\Program Files (x86)\Microchip\xc8\v2.00\pic\include\pic16f877.h"
   410                           PR2 equ 092h ;# 
   411  0092                     # 1813 "C:\Program Files (x86)\Microchip\xc8\v2.00\pic\include\pic16f877.h"
   412                           SSPADD equ 093h ;# 
   413  0093                     # 1820 "C:\Program Files (x86)\Microchip\xc8\v2.00\pic\include\pic16f877.h"
   414                           SSPSTAT equ 094h ;# 
   415  0094                     # 1989 "C:\Program Files (x86)\Microchip\xc8\v2.00\pic\include\pic16f877.h"
   416                           TXSTA equ 098h ;# 
   417  0098                     # 2070 "C:\Program Files (x86)\Microchip\xc8\v2.00\pic\include\pic16f877.h"
   418                           SPBRG equ 099h ;# 
   419  0099                     # 2077 "C:\Program Files (x86)\Microchip\xc8\v2.00\pic\include\pic16f877.h"
   420                           ADRESL equ 09Eh ;# 
   421  009E                     # 2084 "C:\Program Files (x86)\Microchip\xc8\v2.00\pic\include\pic16f877.h"
   422                           ADCON1 equ 09Fh ;# 
   423  009F                     # 2137 "C:\Program Files (x86)\Microchip\xc8\v2.00\pic\include\pic16f877.h"
   424                           EEDATA equ 010Ch ;# 
   425  010C                     # 2144 "C:\Program Files (x86)\Microchip\xc8\v2.00\pic\include\pic16f877.h"
   426                           EEADR equ 010Dh ;# 
   427  010D                     # 2151 "C:\Program Files (x86)\Microchip\xc8\v2.00\pic\include\pic16f877.h"
   428                           EEDATH equ 010Eh ;# 
   429  010E                     # 2158 "C:\Program Files (x86)\Microchip\xc8\v2.00\pic\include\pic16f877.h"
   430                           EEADRH equ 010Fh ;# 
   431  010F                     # 2165 "C:\Program Files (x86)\Microchip\xc8\v2.00\pic\include\pic16f877.h"
   432                           EECON1 equ 018Ch ;# 
   433  018C                     # 2210 "C:\Program Files (x86)\Microchip\xc8\v2.00\pic\include\pic16f877.h"
   434                           EECON2 equ 018Dh ;# 
   435  018D                     	FNCALL	_main,_configuracionInicial
   436                           	FNCALL	_main,_loop
   437                           	FNCALL	_main,_setup
   438                           	FNCALL	_setup,_SerialBegin
   439                           	FNCALL	_setup,_pinMode
   440                           	FNCALL	_SerialBegin,___aldiv
   441                           	FNCALL	_loop,_SerialAvailable
   442                           	FNCALL	_loop,_SerialRead
   443                           	FNCALL	_loop,_SerialWrite
   444                           	FNCALL	_loop,_analogRead
   445                           	FNCALL	_loop,_analogWrite
   446                           	FNCALL	_loop,_cocienteEntero
   447                           	FNCALL	_loop,_delay
   448                           	FNCALL	_loop,_residuo
   449                           	FNCALL	_analogWrite,_PWM1_Duty
   450                           	FNCALL	_analogWrite,_PWM2_Duty
   451                           	FNCALL	_PWM2_Duty,_PWM_Max_Duty
   452                           	FNCALL	_PWM2_Duty,___fldiv
   453                           	FNCALL	_PWM2_Duty,___flmul
   454                           	FNCALL	_PWM2_Duty,___fltol
   455                           	FNCALL	_PWM2_Duty,___xxtofl
   456                           	FNCALL	_PWM1_Duty,_PWM_Max_Duty
   457                           	FNCALL	_PWM1_Duty,___fldiv
   458                           	FNCALL	_PWM1_Duty,___flmul
   459                           	FNCALL	_PWM1_Duty,___fltol
   460                           	FNCALL	_PWM1_Duty,___xxtofl
   461                           	FNCALL	___flmul,__Umul8_16
   462                           	FNCALL	_PWM_Max_Duty,___aldiv
   463                           	FNCALL	_configuracionInicial,_PWM1_Init
   464                           	FNCALL	_configuracionInicial,_PWM1_Start
   465                           	FNCALL	_configuracionInicial,_PWM2_Init
   466                           	FNCALL	_configuracionInicial,_PWM2_Start
   467                           	FNCALL	_PWM2_Init,___aldiv
   468                           	FNCALL	_PWM1_Init,___aldiv
   469                           	FNROOT	_main
   470                           	global	_buffer
   471                           psect	idataBANK1,class=CODE,space=0,delta=2,noexec
   472                           global __pidataBANK1
   473                           __pidataBANK1:
   474  0003                     	file	"application.c"
   475                           	line	10
   476                           
   477                           ;initializer for _PWMTerminal
   478                           	retlw	04h
   479  0003  3404               	line	7
   480                           
   481                           ;initializer for _buffer
   482                           	retlw	02h
   483  0004  3402               	global	_vectorIn
   484                           	global	_PWM
   485                           	global	_vectorOut
   486                           	global	_ADC
   487                           	global	_PWMLSB
   488                           	global	_PWMMSB
   489                           	global	_ADCLSB
   490                           	global	_ADCMSB
   491                           	global	_freq
   492                           psect	nvBANK1,class=BANK1,space=1,noexec
   493                           global __pnvBANK1
   494                           __pnvBANK1:
   495  00C3                     _freq:
   496  00C3                            ds      4
   497  00C3                     
   498                           	global	_CCPR2L
   499                           _CCPR2L	set	0x1B
   500  001B                     	global	_CCPR1L
   501                           _CCPR1L	set	0x15
   502  0015                     	global	_RCREG
   503                           _RCREG	set	0x1A
   504  001A                     	global	_TXREG
   505                           _TXREG	set	0x19
   506  0019                     	global	_ADRESH
   507                           _ADRESH	set	0x1E
   508  001E                     	global	_ADCON0bits
   509                           _ADCON0bits	set	0x1F
   510  001F                     	global	_PORTBbits
   511                           _PORTBbits	set	0x6
   512  0006                     	global	_PORTDbits
   513                           _PORTDbits	set	0x8
   514  0008                     	global	_PORTCbits
   515                           _PORTCbits	set	0x7
   516  0007                     	global	_PORTE
   517                           _PORTE	set	0x9
   518  0009                     	global	_ADCON0
   519                           _ADCON0	set	0x1F
   520  001F                     	global	_CCP2M2
   521                           _CCP2M2	set	0xEA
   522  00EA                     	global	_CCP2M3
   523                           _CCP2M3	set	0xEB
   524  00EB                     	global	_TMR2ON
   525                           _TMR2ON	set	0x92
   526  0092                     	global	_T2CKPS1
   527                           _T2CKPS1	set	0x91
   528  0091                     	global	_T2CKPS0
   529                           _T2CKPS0	set	0x90
   530  0090                     	global	_CCP1M2
   531                           _CCP1M2	set	0xBA
   532  00BA                     	global	_CCP1M3
   533                           _CCP1M3	set	0xBB
   534  00BB                     	global	_CCP2Y
   535                           _CCP2Y	set	0xEC
   536  00EC                     	global	_CCP2X
   537                           _CCP2X	set	0xED
   538  00ED                     	global	_CCP1Y
   539                           _CCP1Y	set	0xBC
   540  00BC                     	global	_CCP1X
   541                           _CCP1X	set	0xBD
   542  00BD                     	global	_RCIF
   543                           _RCIF	set	0x65
   544  0065                     	global	_CREN
   545                           _CREN	set	0xC4
   546  00C4                     	global	_SPEN
   547                           _SPEN	set	0xC7
   548  00C7                     	global	_PR2
   549                           _PR2	set	0x92
   550  0092                     	global	_SPBRG
   551                           _SPBRG	set	0x99
   552  0099                     	global	_ADRESL
   553                           _ADRESL	set	0x9E
   554  009E                     	global	_TRISBbits
   555                           _TRISBbits	set	0x86
   556  0086                     	global	_TRISDbits
   557                           _TRISDbits	set	0x88
   558  0088                     	global	_TRISCbits
   559                           _TRISCbits	set	0x87
   560  0087                     	global	_TRISE
   561                           _TRISE	set	0x89
   562  0089                     	global	_ADCON1
   563                           _ADCON1	set	0x9F
   564  009F                     	global	_TRISC1
   565                           _TRISC1	set	0x439
   566  0439                     	global	_TRISC2
   567                           _TRISC2	set	0x43A
   568  043A                     	global	_TRMT
   569                           _TRMT	set	0x4C1
   570  04C1                     	global	_TXEN
   571                           _TXEN	set	0x4C5
   572  04C5                     	global	_TRISC6
   573                           _TRISC6	set	0x43E
   574  043E                     	global	_TRISC7
   575                           _TRISC7	set	0x43F
   576  043F                     	global	_SYNC
   577                           _SYNC	set	0x4C4
   578  04C4                     	global	_BRGH
   579                           _BRGH	set	0x4C2
   580  04C2                     ; #config settings
   581                           global __CFG_FOSC$HS
   582                           __CFG_FOSC$HS equ 0x0
   583  0000                     global __CFG_WDTE$OFF
   584                           __CFG_WDTE$OFF equ 0x0
   585  0000                     global __CFG_PWRTE$OFF
   586                           __CFG_PWRTE$OFF equ 0x0
   587  0000                     global __CFG_CP$OFF
   588                           __CFG_CP$OFF equ 0x0
   589  0000                     global __CFG_BOREN$OFF
   590                           __CFG_BOREN$OFF equ 0x0
   591  0000                     global __CFG_LVP$OFF
   592                           __CFG_LVP$OFF equ 0x0
   593  0000                     global __CFG_CPD$OFF
   594                           __CFG_CPD$OFF equ 0x0
   595  0000                     global __CFG_WRT$ON
   596                           __CFG_WRT$ON equ 0x0
   597  0000                     	file	"C:\Users\CARLOS~1\AppData\Local\Temp\sbsg."
   598                           	line	#
   599                           psect cinit,class=CODE,delta=2
   600                           global start_initialization
   601                           start_initialization:
   602  07E5                     
   603                           global __initialization
   604                           __initialization:
   605  07E5                     psect	bssBANK1,class=BANK1,space=1,noexec
   606                           global __pbssBANK1
   607                           __pbssBANK1:
   608  00B3                     _vectorIn:
   609  00B3                            ds      3
   610  00B3                     
   611                           _PWM:
   612  00B6                            ds      2
   613  00B6                     
   614                           _vectorOut:
   615  00B8                            ds      2
   616  00B8                     
   617                           _ADC:
   618  00BA                            ds      2
   619  00BA                     
   620                           _PWMLSB:
   621  00BC                            ds      1
   622  00BC                     
   623                           _PWMMSB:
   624  00BD                            ds      1
   625  00BD                     
   626                           _ADCLSB:
   627  00BE                            ds      1
   628  00BE                     
   629                           _ADCMSB:
   630  00BF                            ds      1
   631  00BF                     
   632                           _A0:
   633  00C0                            ds      1
   634  00C0                     
   635                           _Terminal:
   636  00C1                            ds      1
   637  00C1                     
   638                           _Operator:
   639  00C2                            ds      1
   640  00C2                     
   641                           psect	dataBANK1,class=BANK1,space=1,noexec
   642                           global __pdataBANK1
   643                           __pdataBANK1:
   644  00C7                     	file	"application.c"
   645                           	line	10
   646                           _PWMTerminal:
   647  00C7                            ds      1
   648  00C7                     
   649                           psect	dataBANK1
   650                           	file	"application.c"
   651                           	line	7
   652                           _buffer:
   653  00C8                            ds      1
   654  00C8                     
   655                           	file	"C:\Users\CARLOS~1\AppData\Local\Temp\sbsg."
   656                           	line	#
   657                           ; Initialize objects allocated to BANK1
   658                           	global __pidataBANK1
   659                           psect cinit,class=CODE,delta=2,merge=1
   660                           	bsf	status, 5	;RP0=1, select bank1
   661  07E5  1683               	bcf	status, 6	;RP1=0, select bank1
   662  07E6  1303               	fcall	__pidataBANK1+0		;fetch initializer
   663  07E7  120A  118A  2003  120A  118A  	movwf	__pdataBANK1+0&07fh		
   664  07EC  00C7               	fcall	__pidataBANK1+1		;fetch initializer
   665  07ED  120A  118A  2004  120A  118A  	movwf	__pdataBANK1+1&07fh		
   666  07F2  00C8               	line	#
   667                           psect clrtext,class=CODE,delta=2
   668                           global clear_ram0
   669                           ;	Called with FSR containing the base address, and
   670                           ;	W with the last address+1
   671                           clear_ram0:
   672  0948                     	clrwdt			;clear the watchdog before getting into this loop
   673  0948  0064               clrloop0:
   674  0949                     	clrf	indf		;clear RAM location pointed to by FSR
   675  0949  0180               	incf	fsr,f		;increment pointer
   676  094A  0A84               	xorwf	fsr,w		;XOR with final address
   677  094B  0604               	btfsc	status,2	;have we reached the end yet?
   678  094C  1903               	retlw	0		;all done for this memory range, return
   679  094D  3400               	xorwf	fsr,w		;XOR again to restore value
   680  094E  0604               	goto	clrloop0		;do the next byte
   681  094F  2949               
   682                           ; Clear objects allocated to BANK1
   683                           psect cinit,class=CODE,delta=2,merge=1
   684                           	bcf	status, 7	;select IRP bank0
   685  07F3  1383               	movlw	low(__pbssBANK1)
   686  07F4  30B3               	movwf	fsr
   687  07F5  0084               	movlw	low((__pbssBANK1)+010h)
   688  07F6  30C3               	fcall	clear_ram0
   689  07F7  120A  158A  2148  120A  118A  psect cinit,class=CODE,delta=2,merge=1
   690                           global end_of_initialization,__end_of__initialization
   691                           
   692                           ;End of C runtime variable initialization code
   693                           
   694                           end_of_initialization:
   695  07FC                     __end_of__initialization:
   696  07FC                     clrf status
   697  07FC  0183               ljmp _main	;jump to C main() function
   698  07FD  120A  158A  2971   psect	cstackBANK1,class=BANK1,space=1,noexec
   699                           global __pcstackBANK1
   700                           __pcstackBANK1:
   701  00A0                     ??___fltol:	; 1 bytes @ 0x0
   702  00A0                     	ds	5
   703  00A0                     ?_PWM2_Duty:	; 1 bytes @ 0x5
   704  00A5                     ?_PWM1_Duty:	; 1 bytes @ 0x5
   705  00A5                     	global	PWM1_Duty@duty
   706                           PWM1_Duty@duty:	; 2 bytes @ 0x5
   707  00A5                     	global	PWM2_Duty@duty
   708                           PWM2_Duty@duty:	; 2 bytes @ 0x5
   709  00A5                     	ds	2
   710  00A5                     ??_PWM2_Duty:	; 1 bytes @ 0x7
   711  00A7                     ??_PWM1_Duty:	; 1 bytes @ 0x7
   712  00A7                     	ds	2
   713  00A7                     ?_analogWrite:	; 1 bytes @ 0x9
   714  00A9                     	global	analogWrite@value
   715                           analogWrite@value:	; 2 bytes @ 0x9
   716  00A9                     	ds	2
   717  00A9                     ??_analogWrite:	; 1 bytes @ 0xB
   718  00AB                     	ds	2
   719  00AB                     ??_loop:	; 1 bytes @ 0xD
   720  00AD                     	ds	2
   721  00AD                     	global	loop@i
   722                           loop@i:	; 2 bytes @ 0xF
   723  00AF                     	ds	2
   724  00AF                     	global	loop@i_90
   725                           loop@i_90:	; 2 bytes @ 0x11
   726  00B1                     	ds	2
   727  00B1                     psect	cstackCOMMON,class=COMMON,space=1,noexec
   728                           global __pcstackCOMMON
   729                           __pcstackCOMMON:
   730  0070                     ?_pinMode:	; 1 bytes @ 0x0
   731  0070                     ?_SerialAvailable:	; 1 bytes @ 0x0
   732  0070                     ??_SerialAvailable:	; 1 bytes @ 0x0
   733  0070                     ?_SerialRead:	; 1 bytes @ 0x0
   734  0070                     ??_SerialRead:	; 1 bytes @ 0x0
   735  0070                     ?_cocienteEntero:	; 1 bytes @ 0x0
   736  0070                     ?_residuo:	; 1 bytes @ 0x0
   737  0070                     ?_SerialWrite:	; 1 bytes @ 0x0
   738  0070                     ??_SerialWrite:	; 1 bytes @ 0x0
   739  0070                     ?_delay:	; 1 bytes @ 0x0
   740  0070                     ?_configuracionInicial:	; 1 bytes @ 0x0
   741  0070                     ?_PWM1_Start:	; 1 bytes @ 0x0
   742  0070                     ??_PWM1_Start:	; 1 bytes @ 0x0
   743  0070                     ?_PWM2_Start:	; 1 bytes @ 0x0
   744  0070                     ??_PWM2_Start:	; 1 bytes @ 0x0
   745  0070                     ?_setup:	; 1 bytes @ 0x0
   746  0070                     ?_loop:	; 1 bytes @ 0x0
   747  0070                     	global	?_analogRead
   748                           ?_analogRead:	; 2 bytes @ 0x0
   749  0070                     	global	?__Umul8_16
   750                           ?__Umul8_16:	; 2 bytes @ 0x0
   751  0070                     ?_main:	; 2 bytes @ 0x0
   752  0070                     	global	?___aldiv
   753                           ?___aldiv:	; 4 bytes @ 0x0
   754  0070                     	global	pinMode@mode
   755                           pinMode@mode:	; 1 bytes @ 0x0
   756  0070                     	global	SerialWrite@data
   757                           SerialWrite@data:	; 1 bytes @ 0x0
   758  0070                     	global	__Umul8_16@multiplicand
   759                           __Umul8_16@multiplicand:	; 1 bytes @ 0x0
   760  0070                     	global	residuo@numerator
   761                           residuo@numerator:	; 2 bytes @ 0x0
   762  0070                     	global	cocienteEntero@numerator
   763                           cocienteEntero@numerator:	; 2 bytes @ 0x0
   764  0070                     	global	delay@milis
   765                           delay@milis:	; 2 bytes @ 0x0
   766  0070                     	global	___aldiv@divisor
   767                           ___aldiv@divisor:	; 4 bytes @ 0x0
   768  0070                     	ds	1
   769  0070                     ??_pinMode:	; 1 bytes @ 0x1
   770  0071                     	ds	1
   771  0071                     ??_analogRead:	; 1 bytes @ 0x2
   772  0072                     ??_delay:	; 1 bytes @ 0x2
   773  0072                     ??__Umul8_16:	; 1 bytes @ 0x2
   774  0072                     	global	residuo@denominator
   775                           residuo@denominator:	; 2 bytes @ 0x2
   776  0072                     	global	cocienteEntero@denominator
   777                           cocienteEntero@denominator:	; 2 bytes @ 0x2
   778  0072                     	ds	1
   779  0072                     	global	pinMode@pin
   780                           pinMode@pin:	; 1 bytes @ 0x3
   781  0073                     	global	delay@j
   782                           delay@j:	; 2 bytes @ 0x3
   783  0073                     	ds	1
   784  0073                     ??_cocienteEntero:	; 1 bytes @ 0x4
   785  0074                     ??_residuo:	; 1 bytes @ 0x4
   786  0074                     	global	analogRead@channel
   787                           analogRead@channel:	; 1 bytes @ 0x4
   788  0074                     	global	residuo@temp1
   789                           residuo@temp1:	; 2 bytes @ 0x4
   790  0074                     	global	cocienteEntero@cont
   791                           cocienteEntero@cont:	; 2 bytes @ 0x4
   792  0074                     	global	__Umul8_16@product
   793                           __Umul8_16@product:	; 2 bytes @ 0x4
   794  0074                     	global	___aldiv@dividend
   795                           ___aldiv@dividend:	; 4 bytes @ 0x4
   796  0074                     	ds	1
   797  0074                     	global	delay@i
   798                           delay@i:	; 2 bytes @ 0x5
   799  0075                     	ds	1
   800  0075                     	global	cocienteEntero@temp1
   801                           cocienteEntero@temp1:	; 2 bytes @ 0x6
   802  0076                     	global	__Umul8_16@word_mpld
   803                           __Umul8_16@word_mpld:	; 2 bytes @ 0x6
   804  0076                     	ds	2
   805  0076                     ??___aldiv:	; 1 bytes @ 0x8
   806  0078                     	global	__Umul8_16@multiplier
   807                           __Umul8_16@multiplier:	; 1 bytes @ 0x8
   808  0078                     	ds	1
   809  0078                     ??_PWM1_Init:	; 1 bytes @ 0x9
   810  0079                     ??_PWM2_Init:	; 1 bytes @ 0x9
   811  0079                     ??_PWM_Max_Duty:	; 1 bytes @ 0x9
   812  0079                     	global	SerialBegin@x
   813                           SerialBegin@x:	; 2 bytes @ 0x9
   814  0079                     	ds	2
   815  0079                     ??_setup:	; 1 bytes @ 0xB
   816  007B                     	ds	2
   817  007B                     ??_configuracionInicial:	; 1 bytes @ 0xD
   818  007D                     	global	analogWrite@pin
   819                           analogWrite@pin:	; 1 bytes @ 0xD
   820  007D                     	ds	1
   821  007D                     ??_main:	; 1 bytes @ 0xE
   822  007E                     psect	cstackBANK0,class=BANK0,space=1,noexec
   823                           global __pcstackBANK0
   824                           __pcstackBANK0:
   825  0020                     	global	___aldiv@counter
   826                           ___aldiv@counter:	; 1 bytes @ 0x0
   827  0020                     	ds	1
   828  0020                     	global	___aldiv@sign
   829                           ___aldiv@sign:	; 1 bytes @ 0x1
   830  0021                     	ds	1
   831  0021                     	global	___aldiv@quotient
   832                           ___aldiv@quotient:	; 4 bytes @ 0x2
   833  0022                     	ds	4
   834  0022                     ?_SerialBegin:	; 1 bytes @ 0x6
   835  0026                     ?_PWM1_Init:	; 1 bytes @ 0x6
   836  0026                     ?_PWM2_Init:	; 1 bytes @ 0x6
   837  0026                     	global	?_PWM_Max_Duty
   838                           ?_PWM_Max_Duty:	; 2 bytes @ 0x6
   839  0026                     	global	SerialBegin@baudrate
   840                           SerialBegin@baudrate:	; 4 bytes @ 0x6
   841  0026                     	global	PWM1_Init@fre
   842                           PWM1_Init@fre:	; 4 bytes @ 0x6
   843  0026                     	global	PWM2_Init@fre
   844                           PWM2_Init@fre:	; 4 bytes @ 0x6
   845  0026                     	ds	2
   846  0026                     	global	?___xxtofl
   847                           ?___xxtofl:	; 4 bytes @ 0x8
   848  0028                     	global	___xxtofl@val
   849                           ___xxtofl@val:	; 4 bytes @ 0x8
   850  0028                     	ds	2
   851  0028                     ??_SerialBegin:	; 1 bytes @ 0xA
   852  002A                     	ds	2
   853  002A                     ??___xxtofl:	; 1 bytes @ 0xC
   854  002C                     	ds	4
   855  002C                     	global	___xxtofl@sign
   856                           ___xxtofl@sign:	; 1 bytes @ 0x10
   857  0030                     	ds	1
   858  0030                     	global	___xxtofl@exp
   859                           ___xxtofl@exp:	; 1 bytes @ 0x11
   860  0031                     	ds	1
   861  0031                     	global	___xxtofl@arg
   862                           ___xxtofl@arg:	; 4 bytes @ 0x12
   863  0032                     	ds	4
   864  0032                     	global	?___fldiv
   865                           ?___fldiv:	; 4 bytes @ 0x16
   866  0036                     	global	___fldiv@a
   867                           ___fldiv@a:	; 4 bytes @ 0x16
   868  0036                     	ds	4
   869  0036                     	global	___fldiv@b
   870                           ___fldiv@b:	; 4 bytes @ 0x1A
   871  003A                     	ds	4
   872  003A                     ??___fldiv:	; 1 bytes @ 0x1E
   873  003E                     	ds	5
   874  003E                     	global	___fldiv@rem
   875                           ___fldiv@rem:	; 4 bytes @ 0x23
   876  0043                     	ds	4
   877  0043                     	global	___fldiv@sign
   878                           ___fldiv@sign:	; 1 bytes @ 0x27
   879  0047                     	ds	1
   880  0047                     	global	___fldiv@new_exp
   881                           ___fldiv@new_exp:	; 2 bytes @ 0x28
   882  0048                     	ds	2
   883  0048                     	global	___fldiv@grs
   884                           ___fldiv@grs:	; 4 bytes @ 0x2A
   885  004A                     	ds	4
   886  004A                     	global	___fldiv@bexp
   887                           ___fldiv@bexp:	; 1 bytes @ 0x2E
   888  004E                     	ds	1
   889  004E                     	global	___fldiv@aexp
   890                           ___fldiv@aexp:	; 1 bytes @ 0x2F
   891  004F                     	ds	1
   892  004F                     	global	?___flmul
   893                           ?___flmul:	; 4 bytes @ 0x30
   894  0050                     	global	___flmul@b
   895                           ___flmul@b:	; 4 bytes @ 0x30
   896  0050                     	ds	4
   897  0050                     	global	___flmul@a
   898                           ___flmul@a:	; 4 bytes @ 0x34
   899  0054                     	ds	4
   900  0054                     ??___flmul:	; 1 bytes @ 0x38
   901  0058                     	ds	5
   902  0058                     	global	___flmul@sign
   903                           ___flmul@sign:	; 1 bytes @ 0x3D
   904  005D                     	ds	1
   905  005D                     	global	___flmul@grs
   906                           ___flmul@grs:	; 4 bytes @ 0x3E
   907  005E                     	ds	4
   908  005E                     	global	___flmul@aexp
   909                           ___flmul@aexp:	; 1 bytes @ 0x42
   910  0062                     	ds	1
   911  0062                     	global	___flmul@bexp
   912                           ___flmul@bexp:	; 1 bytes @ 0x43
   913  0063                     	ds	1
   914  0063                     	global	___flmul@prod
   915                           ___flmul@prod:	; 4 bytes @ 0x44
   916  0064                     	ds	4
   917  0064                     	global	___flmul@temp
   918                           ___flmul@temp:	; 2 bytes @ 0x48
   919  0068                     	ds	2
   920  0068                     	global	?___fltol
   921                           ?___fltol:	; 4 bytes @ 0x4A
   922  006A                     	global	___fltol@f1
   923                           ___fltol@f1:	; 4 bytes @ 0x4A
   924  006A                     	ds	4
   925  006A                     	global	___fltol@sign1
   926                           ___fltol@sign1:	; 1 bytes @ 0x4E
   927  006E                     	ds	1
   928  006E                     	global	___fltol@exp1
   929                           ___fltol@exp1:	; 1 bytes @ 0x4F
   930  006F                     	ds	1
   931  006F                     ;!
   932                           ;!Data Sizes:
   933                           ;!    Strings     0
   934                           ;!    Constant    0
   935                           ;!    Data        2
   936                           ;!    BSS         16
   937                           ;!    Persistent  4
   938                           ;!    Stack       0
   939                           ;!
   940                           ;!Auto Spaces:
   941                           ;!    Space          Size  Autos    Used
   942                           ;!    COMMON           14     14      14
   943                           ;!    BANK0            80     80      80
   944                           ;!    BANK1            80     19      41
   945                           ;!    BANK3            96      0       0
   946                           ;!    BANK2            96      0       0
   947                           
   948                           ;!
   949                           ;!Pointer List with Targets:
   950                           ;!
   951                           ;!    None.
   952                           
   953                           
   954                           ;!
   955                           ;!Critical Paths under _main in COMMON
   956                           ;!
   957                           ;!    _setup->_SerialBegin
   958                           ;!    _SerialBegin->___aldiv
   959                           ;!    _loop->_analogWrite
   960                           ;!    _PWM2_Duty->_PWM_Max_Duty
   961                           ;!    _PWM1_Duty->_PWM_Max_Duty
   962                           ;!    ___xxtofl->_PWM_Max_Duty
   963                           ;!    ___fltol->_PWM_Max_Duty
   964                           ;!    ___flmul->_PWM_Max_Duty
   965                           ;!    _PWM_Max_Duty->___aldiv
   966                           ;!    _configuracionInicial->_PWM1_Init
   967                           ;!    _configuracionInicial->_PWM2_Init
   968                           ;!    _PWM2_Init->___aldiv
   969                           ;!    _PWM1_Init->___aldiv
   970                           ;!
   971                           ;!Critical Paths under _main in BANK0
   972                           ;!
   973                           ;!    _setup->_SerialBegin
   974                           ;!    _SerialBegin->___aldiv
   975                           ;!    _PWM2_Duty->___fltol
   976                           ;!    _PWM1_Duty->___fltol
   977                           ;!    ___xxtofl->_PWM_Max_Duty
   978                           ;!    ___fltol->___flmul
   979                           ;!    ___flmul->___fldiv
   980                           ;!    ___fldiv->___xxtofl
   981                           ;!    _PWM_Max_Duty->___aldiv
   982                           ;!    _configuracionInicial->_PWM1_Init
   983                           ;!    _configuracionInicial->_PWM2_Init
   984                           ;!    _PWM2_Init->___aldiv
   985                           ;!    _PWM1_Init->___aldiv
   986                           ;!
   987                           ;!Critical Paths under _main in BANK1
   988                           ;!
   989                           ;!    _main->_loop
   990                           ;!    _loop->_analogWrite
   991                           ;!    _analogWrite->_PWM1_Duty
   992                           ;!    _analogWrite->_PWM2_Duty
   993                           ;!    _PWM2_Duty->___fltol
   994                           ;!    _PWM1_Duty->___fltol
   995                           ;!
   996                           ;!Critical Paths under _main in BANK3
   997                           ;!
   998                           ;!    None.
   999                           ;!
  1000                           ;!Critical Paths under _main in BANK2
  1001                           ;!
  1002                           ;!    None.
  1003                           
  1004 ;;
  1005 ;;Main: autosize = 0, tempsize = 0, incstack = 0, save=0
  1006 ;;
  1007                           
  1008                           ;!
  1009                           ;!Call Graph Tables:
  1010                           ;!
  1011                           ;! ---------------------------------------------------------------------------------
  1012                           ;! (Depth) Function   	        Calls       Base Space   Used Autos Params    Refs
  1013                           ;! ---------------------------------------------------------------------------------
  1014                           ;! (0) _main                                                 0     0      0   17826
  1015                           ;!               _configuracionInicial
  1016                           ;!                               _loop
  1017                           ;!                              _setup
  1018                           ;! ---------------------------------------------------------------------------------
  1019                           ;! (1) _setup                                                0     0      0    1918
  1020                           ;!                        _SerialBegin
  1021                           ;!                            _pinMode
  1022                           ;! ---------------------------------------------------------------------------------
  1023                           ;! (2) _pinMode                                              4     3      1     626
  1024                           ;!                                              0 COMMON     4     3      1
  1025                           ;! ---------------------------------------------------------------------------------
  1026                           ;! (2) _SerialBegin                                         18    14      4    1292
  1027                           ;!                                              9 COMMON     2     2      0
  1028                           ;!                                              6 BANK0     16    12      4
  1029                           ;!                            ___aldiv
  1030                           ;! ---------------------------------------------------------------------------------
  1031                           ;! (1) _loop                                                 6     6      0   13548
  1032                           ;!                                             13 BANK1      6     6      0
  1033                           ;!                    _SerialAvailable
  1034                           ;!                         _SerialRead
  1035                           ;!                        _SerialWrite
  1036                           ;!                         _analogRead
  1037                           ;!                        _analogWrite
  1038                           ;!                     _cocienteEntero
  1039                           ;!                              _delay
  1040                           ;!                            _residuo
  1041                           ;! ---------------------------------------------------------------------------------
  1042                           ;! (2) _residuo                                              6     2      4     264
  1043                           ;!                                              0 COMMON     6     2      4
  1044                           ;! ---------------------------------------------------------------------------------
  1045                           ;! (2) _delay                                                7     5      2     212
  1046                           ;!                                              0 COMMON     7     5      2
  1047                           ;! ---------------------------------------------------------------------------------
  1048                           ;! (2) _cocienteEntero                                       8     4      4     266
  1049                           ;!                                              0 COMMON     8     4      4
  1050                           ;! ---------------------------------------------------------------------------------
  1051                           ;! (2) _analogWrite                                          5     3      2   12670
  1052                           ;!                                             13 COMMON     1     1      0
  1053                           ;!                                              9 BANK1      4     2      2
  1054                           ;!                          _PWM1_Duty
  1055                           ;!                          _PWM2_Duty
  1056                           ;! ---------------------------------------------------------------------------------
  1057                           ;! (3) _PWM2_Duty                                            4     2      2    6226
  1058                           ;!                                              5 BANK1      4     2      2
  1059                           ;!                       _PWM_Max_Duty
  1060                           ;!                            ___fldiv
  1061                           ;!                            ___flmul
  1062                           ;!                            ___fltol
  1063                           ;!                           ___xxtofl
  1064                           ;! ---------------------------------------------------------------------------------
  1065                           ;! (3) _PWM1_Duty                                            4     2      2    6226
  1066                           ;!                                              5 BANK1      4     2      2
  1067                           ;!                       _PWM_Max_Duty
  1068                           ;!                            ___fldiv
  1069                           ;!                            ___flmul
  1070                           ;!                            ___fltol
  1071                           ;!                           ___xxtofl
  1072                           ;! ---------------------------------------------------------------------------------
  1073                           ;! (4) ___xxtofl                                            14    10      4     626
  1074                           ;!                                              8 BANK0     14    10      4
  1075                           ;!                       _PWM_Max_Duty (ARG)
  1076                           ;! ---------------------------------------------------------------------------------
  1077                           ;! (4) ___fltol                                             11     7      4     381
  1078                           ;!                                             74 BANK0      6     2      4
  1079                           ;!                                              0 BANK1      5     5      0
  1080                           ;!                       _PWM_Max_Duty (ARG)
  1081                           ;!                            ___fldiv (ARG)
  1082                           ;!                            ___flmul (ARG)
  1083                           ;!                           ___xxtofl (ARG)
  1084                           ;! ---------------------------------------------------------------------------------
  1085                           ;! (4) ___flmul                                             26    18      8    2569
  1086                           ;!                                             48 BANK0     26    18      8
  1087                           ;!                       _PWM_Max_Duty (ARG)
  1088                           ;!                          __Umul8_16
  1089                           ;!                            ___fldiv (ARG)
  1090                           ;!                           ___xxtofl (ARG)
  1091                           ;! ---------------------------------------------------------------------------------
  1092                           ;! (5) __Umul8_16                                            9     7      2     799
  1093                           ;!                                              0 COMMON     9     7      2
  1094                           ;! ---------------------------------------------------------------------------------
  1095                           ;! (4) ___fldiv                                             26    18      8    1425
  1096                           ;!                                             22 BANK0     26    18      8
  1097                           ;!                           ___xxtofl (ARG)
  1098                           ;! ---------------------------------------------------------------------------------
  1099                           ;! (4) _PWM_Max_Duty                                         6     4      2    1060
  1100                           ;!                                              9 COMMON     4     4      0
  1101                           ;!                                              6 BANK0      2     0      2
  1102                           ;!                            ___aldiv
  1103                           ;! ---------------------------------------------------------------------------------
  1104                           ;! (2) _analogRead                                           5     3      2      22
  1105                           ;!                                              0 COMMON     5     3      2
  1106                           ;! ---------------------------------------------------------------------------------
  1107                           ;! (2) _SerialWrite                                          1     1      0      22
  1108                           ;!                                              0 COMMON     1     1      0
  1109                           ;! ---------------------------------------------------------------------------------
  1110                           ;! (2) _SerialRead                                           0     0      0       0
  1111                           ;! ---------------------------------------------------------------------------------
  1112                           ;! (2) _SerialAvailable                                      0     0      0       0
  1113                           ;! ---------------------------------------------------------------------------------
  1114                           ;! (1) _configuracionInicial                                 0     0      0    2360
  1115                           ;!                          _PWM1_Init
  1116                           ;!                         _PWM1_Start
  1117                           ;!                          _PWM2_Init
  1118                           ;!                         _PWM2_Start
  1119                           ;! ---------------------------------------------------------------------------------
  1120                           ;! (2) _PWM2_Start                                           0     0      0       0
  1121                           ;! ---------------------------------------------------------------------------------
  1122                           ;! (2) _PWM2_Init                                            8     4      4    1180
  1123                           ;!                                              9 COMMON     4     4      0
  1124                           ;!                                              6 BANK0      4     0      4
  1125                           ;!                            ___aldiv
  1126                           ;! ---------------------------------------------------------------------------------
  1127                           ;! (2) _PWM1_Start                                           0     0      0       0
  1128                           ;! ---------------------------------------------------------------------------------
  1129                           ;! (2) _PWM1_Init                                            8     4      4    1180
  1130                           ;!                                              9 COMMON     4     4      0
  1131                           ;!                                              6 BANK0      4     0      4
  1132                           ;!                            ___aldiv
  1133                           ;! ---------------------------------------------------------------------------------
  1134                           ;! (3) ___aldiv                                             15     7      8    1060
  1135                           ;!                                              0 COMMON     9     1      8
  1136                           ;!                                              0 BANK0      6     6      0
  1137                           ;! ---------------------------------------------------------------------------------
  1138                           ;! Estimated maximum stack depth 5
  1139                           ;! ---------------------------------------------------------------------------------
  1140                           ;!
  1141                           ;! Call Graph Graphs:
  1142                           ;!
  1143                           ;! _main (ROOT)
  1144                           ;!   _configuracionInicial
  1145                           ;!     _PWM1_Init
  1146                           ;!       ___aldiv
  1147                           ;!     _PWM1_Start
  1148                           ;!     _PWM2_Init
  1149                           ;!       ___aldiv
  1150                           ;!     _PWM2_Start
  1151                           ;!   _loop
  1152                           ;!     _SerialAvailable
  1153                           ;!     _SerialRead
  1154                           ;!     _SerialWrite
  1155                           ;!     _analogRead
  1156                           ;!     _analogWrite
  1157                           ;!       _PWM1_Duty
  1158                           ;!         _PWM_Max_Duty
  1159                           ;!           ___aldiv
  1160                           ;!         ___fldiv
  1161                           ;!           ___xxtofl (ARG)
  1162                           ;!             _PWM_Max_Duty (ARG)
  1163                           ;!               ___aldiv
  1164                           ;!         ___flmul
  1165                           ;!           _PWM_Max_Duty (ARG)
  1166                           ;!             ___aldiv
  1167                           ;!           __Umul8_16 (ARG)
  1168                           ;!           ___fldiv (ARG)
  1169                           ;!             ___xxtofl (ARG)
  1170                           ;!               _PWM_Max_Duty (ARG)
  1171                           ;!                 ___aldiv
  1172                           ;!           ___xxtofl (ARG)
  1173                           ;!             _PWM_Max_Duty (ARG)
  1174                           ;!               ___aldiv
  1175                           ;!         ___fltol
  1176                           ;!           _PWM_Max_Duty (ARG)
  1177                           ;!             ___aldiv
  1178                           ;!           ___fldiv (ARG)
  1179                           ;!             ___xxtofl (ARG)
  1180                           ;!               _PWM_Max_Duty (ARG)
  1181                           ;!                 ___aldiv
  1182                           ;!           ___flmul (ARG)
  1183                           ;!             _PWM_Max_Duty (ARG)
  1184                           ;!               ___aldiv
  1185                           ;!             __Umul8_16 (ARG)
  1186                           ;!             ___fldiv (ARG)
  1187                           ;!               ___xxtofl (ARG)
  1188                           ;!                 _PWM_Max_Duty (ARG)
  1189                           ;!                   ___aldiv
  1190                           ;!             ___xxtofl (ARG)
  1191                           ;!               _PWM_Max_Duty (ARG)
  1192                           ;!                 ___aldiv
  1193                           ;!           ___xxtofl (ARG)
  1194                           ;!             _PWM_Max_Duty (ARG)
  1195                           ;!               ___aldiv
  1196                           ;!         ___xxtofl
  1197                           ;!           _PWM_Max_Duty (ARG)
  1198                           ;!             ___aldiv
  1199                           ;!       _PWM2_Duty
  1200                           ;!         _PWM_Max_Duty
  1201                           ;!           ___aldiv
  1202                           ;!         ___fldiv
  1203                           ;!           ___xxtofl (ARG)
  1204                           ;!             _PWM_Max_Duty (ARG)
  1205                           ;!               ___aldiv
  1206                           ;!         ___flmul
  1207                           ;!           _PWM_Max_Duty (ARG)
  1208                           ;!             ___aldiv
  1209                           ;!           __Umul8_16 (ARG)
  1210                           ;!           ___fldiv (ARG)
  1211                           ;!             ___xxtofl (ARG)
  1212                           ;!               _PWM_Max_Duty (ARG)
  1213                           ;!                 ___aldiv
  1214                           ;!           ___xxtofl (ARG)
  1215                           ;!             _PWM_Max_Duty (ARG)
  1216                           ;!               ___aldiv
  1217                           ;!         ___fltol
  1218                           ;!           _PWM_Max_Duty (ARG)
  1219                           ;!             ___aldiv
  1220                           ;!           ___fldiv (ARG)
  1221                           ;!             ___xxtofl (ARG)
  1222                           ;!               _PWM_Max_Duty (ARG)
  1223                           ;!                 ___aldiv
  1224                           ;!           ___flmul (ARG)
  1225                           ;!             _PWM_Max_Duty (ARG)
  1226                           ;!               ___aldiv
  1227                           ;!             __Umul8_16 (ARG)
  1228                           ;!             ___fldiv (ARG)
  1229                           ;!               ___xxtofl (ARG)
  1230                           ;!                 _PWM_Max_Duty (ARG)
  1231                           ;!                   ___aldiv
  1232                           ;!             ___xxtofl (ARG)
  1233                           ;!               _PWM_Max_Duty (ARG)
  1234                           ;!                 ___aldiv
  1235                           ;!           ___xxtofl (ARG)
  1236                           ;!             _PWM_Max_Duty (ARG)
  1237                           ;!               ___aldiv
  1238                           ;!         ___xxtofl
  1239                           ;!           _PWM_Max_Duty (ARG)
  1240                           ;!             ___aldiv
  1241                           ;!     _cocienteEntero
  1242                           ;!     _delay
  1243                           ;!     _residuo
  1244                           ;!   _setup
  1245                           ;!     _SerialBegin
  1246                           ;!       ___aldiv
  1247                           ;!     _pinMode
  1248                           ;!
  1249                           
  1250                           ;! Address spaces:
  1251                           
  1252                           ;!Name               Size   Autos  Total    Cost      Usage
  1253                           ;!BANK3               60      0       0       9        0.0%
  1254                           ;!BITBANK3            60      0       0       8        0.0%
  1255                           ;!SFR3                 0      0       0       4        0.0%
  1256                           ;!BITSFR3              0      0       0       4        0.0%
  1257                           ;!BANK2               60      0       0      11        0.0%
  1258                           ;!BITBANK2            60      0       0      10        0.0%
  1259                           ;!SFR2                 0      0       0       5        0.0%
  1260                           ;!BITSFR2              0      0       0       5        0.0%
  1261                           ;!BANK1               50     13      29       7       51.3%
  1262                           ;!BITBANK1            50      0       0       6        0.0%
  1263                           ;!SFR1                 0      0       0       2        0.0%
  1264                           ;!BITSFR1              0      0       0       2        0.0%
  1265                           ;!BANK0               50     50      50       5      100.0%
  1266                           ;!BITBANK0            50      0       0       4        0.0%
  1267                           ;!SFR0                 0      0       0       1        0.0%
  1268                           ;!BITSFR0              0      0       0       1        0.0%
  1269                           ;!COMMON               E      E       E       1      100.0%
  1270                           ;!BITCOMMON            E      0       0       0        0.0%
  1271                           ;!CODE                 0      0       0       0        0.0%
  1272                           ;!DATA                 0      0      87      12        0.0%
  1273                           ;!ABS                  0      0      87       3        0.0%
  1274                           ;!NULL                 0      0       0       0        0.0%
  1275                           ;!STACK                0      0       0       2        0.0%
  1276                           ;!EEDATA             100      0       0       0        0.0%
  1277                           
  1278                           	global	_main
  1279                           
  1280 ;; *************** function _main *****************
  1281 ;; Defined at:
  1282 ;;		line 7 in file "procedures.c"
  1283 ;; Parameters:    Size  Location     Type
  1284 ;;		None
  1285 ;; Auto vars:     Size  Location     Type
  1286 ;;		None
  1287 ;; Return value:  Size  Location     Type
  1288 ;;                  2  178[None  ] int 
  1289 ;; Registers used:
  1290 ;;		wreg, fsr0l, fsr0h, status,2, status,0, btemp+1, pclath, cstack
  1291 ;; Tracked objects:
  1292 ;;		On entry : B00/0
  1293 ;;		On exit  : 0/0
  1294 ;;		Unchanged: 0/0
  1295 ;; Data sizes:     COMMON   BANK0   BANK1   BANK3   BANK2
  1296 ;;      Params:         0       0       0       0       0
  1297 ;;      Locals:         0       0       0       0       0
  1298 ;;      Temps:          0       0       0       0       0
  1299 ;;      Totals:         0       0       0       0       0
  1300 ;;Total ram usage:        0 bytes
  1301 ;; Hardware stack levels required when called:    5
  1302 ;; This function calls:
  1303 ;;		_configuracionInicial
  1304 ;;		_loop
  1305 ;;		_setup
  1306 ;; This function is called by:
  1307 ;;		Startup code after reset
  1308 ;; This function uses a non-reentrant model
  1309 ;;
  1310                           psect	maintext,global,class=CODE,delta=2,split=1,group=0
  1311                           	file	"procedures.c"
  1312                           	line	7
  1313                           global __pmaintext
  1314                           __pmaintext:	;psect for function _main
  1315  0971                     psect	maintext
  1316                           	file	"procedures.c"
  1317                           	line	7
  1318                           	global	__size_of_main
  1319                           	__size_of_main	equ	__end_of_main-_main
  1320  0015                     	
  1321                           _main:	
  1322  0971                     ;incstack = 0
  1323                           	opt	stack 3
  1324                           ; Regs used in _main: [wreg-fsr0h+status,2+status,0+btemp+1+pclath+cstack]
  1325                           	line	9
  1326                           	
  1327                           l2568:	
  1328  0971                     ;procedures.c: 9:     configuracionInicial();
  1329                           	fcall	_configuracionInicial
  1330  0971  120A  158A  225F  120A  158A  	line	10
  1331                           	
  1332                           l2570:	
  1333  0976                     ;procedures.c: 10:     setup();
  1334                           	fcall	_setup
  1335  0976  120A  158A  2186  120A  158A  	goto	l2572
  1336  097B  297C               	line	11
  1337                           ;procedures.c: 11:     while(1)
  1338                           	
  1339                           l179:	
  1340  097C                     	line	13
  1341                           	
  1342                           l2572:	
  1343  097C                     ;procedures.c: 12:     {;procedures.c: 13:         loop();
  1344                           	fcall	_loop
  1345  097C  120A  158A  272E  120A  158A  	goto	l2572
  1346  0981  297C               	line	14
  1347                           ;procedures.c: 14:     }
  1348                           	
  1349                           l180:	
  1350  0982                     	goto	l2572
  1351  0982  297C               	
  1352                           l181:	
  1353  0983                     	line	16
  1354                           ;procedures.c: 15:     return 0;;	Return value of _main is never used
  1355                           	
  1356                           l182:	
  1357  0983                     	global	start
  1358                           	ljmp	start
  1359  0983  120A  118A  2800   	opt stack 0
  1360                           GLOBAL	__end_of_main
  1361                           	__end_of_main:
  1362  0986                     	signat	_main,90
  1363                           	global	_setup
  1364                           
  1365 ;; *************** function _setup *****************
  1366 ;; Defined at:
  1367 ;;		line 19 in file "application.c"
  1368 ;; Parameters:    Size  Location     Type
  1369 ;;		None
  1370 ;; Auto vars:     Size  Location     Type
  1371 ;;		None
  1372 ;; Return value:  Size  Location     Type
  1373 ;;                  1    wreg      void 
  1374 ;; Registers used:
  1375 ;;		wreg, fsr0l, fsr0h, status,2, status,0, pclath, cstack
  1376 ;; Tracked objects:
  1377 ;;		On entry : 0/0
  1378 ;;		On exit  : 0/0
  1379 ;;		Unchanged: 0/0
  1380 ;; Data sizes:     COMMON   BANK0   BANK1   BANK3   BANK2
  1381 ;;      Params:         0       0       0       0       0
  1382 ;;      Locals:         0       0       0       0       0
  1383 ;;      Temps:          0       0       0       0       0
  1384 ;;      Totals:         0       0       0       0       0
  1385 ;;Total ram usage:        0 bytes
  1386 ;; Hardware stack levels used:    1
  1387 ;; Hardware stack levels required when called:    2
  1388 ;; This function calls:
  1389 ;;		_SerialBegin
  1390 ;;		_pinMode
  1391 ;; This function is called by:
  1392 ;;		_main
  1393 ;; This function uses a non-reentrant model
  1394 ;;
  1395                           psect	text1,local,class=CODE,delta=2,merge=1,group=0
  1396                           	file	"application.c"
  1397                           	line	19
  1398                           global __ptext1
  1399                           __ptext1:	;psect for function _setup
  1400  0986                     psect	text1
  1401                           	file	"application.c"
  1402                           	line	19
  1403                           	global	__size_of_setup
  1404                           	__size_of_setup	equ	__end_of_setup-_setup
  1405  0017                     	
  1406                           _setup:	
  1407  0986                     ;incstack = 0
  1408                           	opt	stack 5
  1409                           ; Regs used in _setup: [wreg-fsr0h+status,2+status,0+pclath+cstack]
  1410                           	line	21
  1411                           	
  1412                           l2514:	
  1413  0986                     ;application.c: 21:     SerialBegin(9600);
  1414                           	movlw	0
  1415  0986  3000               	bcf	status, 5	;RP0=0, select bank0
  1416  0987  1283               	bcf	status, 6	;RP1=0, select bank0
  1417  0988  1303               	movwf	(SerialBegin@baudrate+3)
  1418  0989  00A9               	movlw	0
  1419  098A  3000               	movwf	(SerialBegin@baudrate+2)
  1420  098B  00A8               	movlw	025h
  1421  098C  3025               	movwf	(SerialBegin@baudrate+1)
  1422  098D  00A7               	movlw	080h
  1423  098E  3080               	movwf	(SerialBegin@baudrate)
  1424  098F  00A6               
  1425                           	fcall	_SerialBegin
  1426  0990  120A  118A  2062  120A  158A  	line	22
  1427                           	
  1428                           l2516:	
  1429  0995                     ;application.c: 22:     pinMode(1,0);
  1430                           	clrf	(pinMode@mode)
  1431  0995  01F0               	movlw	low(01h)
  1432  0996  3001               	fcall	_pinMode
  1433  0997  120A  118A  2151  120A  158A  	line	23
  1434                           	
  1435                           l49:	
  1436  099C                     	return
  1437  099C  0008               	opt stack 0
  1438                           GLOBAL	__end_of_setup
  1439                           	__end_of_setup:
  1440  099D                     	signat	_setup,89
  1441                           	global	_pinMode
  1442                           
  1443 ;; *************** function _pinMode *****************
  1444 ;; Defined at:
  1445 ;;		line 47 in file "procedures.c"
  1446 ;; Parameters:    Size  Location     Type
  1447 ;;  pin             1    wreg     unsigned char 
  1448 ;;  mode            1    0[COMMON] unsigned char 
  1449 ;; Auto vars:     Size  Location     Type
  1450 ;;  pin             1    3[COMMON] unsigned char 
  1451 ;; Return value:  Size  Location     Type
  1452 ;;                  1    wreg      void 
  1453 ;; Registers used:
  1454 ;;		wreg, fsr0l, fsr0h, status,2, status,0
  1455 ;; Tracked objects:
  1456 ;;		On entry : 0/0
  1457 ;;		On exit  : 0/0
  1458 ;;		Unchanged: 0/0
  1459 ;; Data sizes:     COMMON   BANK0   BANK1   BANK3   BANK2
  1460 ;;      Params:         1       0       0       0       0
  1461 ;;      Locals:         1       0       0       0       0
  1462 ;;      Temps:          2       0       0       0       0
  1463 ;;      Totals:         4       0       0       0       0
  1464 ;;Total ram usage:        4 bytes
  1465 ;; Hardware stack levels used:    1
  1466 ;; This function calls:
  1467 ;;		Nothing
  1468 ;; This function is called by:
  1469 ;;		_setup
  1470 ;; This function uses a non-reentrant model
  1471 ;;
  1472                           psect	text2,local,class=CODE,delta=2,merge=1,group=0
  1473                           	file	"procedures.c"
  1474                           	line	47
  1475                           global __ptext2
  1476                           __ptext2:	;psect for function _pinMode
  1477  0151                     psect	text2
  1478                           	file	"procedures.c"
  1479                           	line	47
  1480                           	global	__size_of_pinMode
  1481                           	__size_of_pinMode	equ	__end_of_pinMode-_pinMode
  1482  0116                     	
  1483                           _pinMode:	
  1484  0151                     ;incstack = 0
  1485                           	opt	stack 6
  1486                           ; Regs used in _pinMode: [wreg-fsr0h+status,2+status,0]
  1487                           ;pinMode@pin stored from wreg
  1488                           	movwf	(pinMode@pin)
  1489  0151  00F3               	line	49
  1490                           	
  1491                           l2334:	
  1492  0152                     ;procedures.c: 47: void pinMode(char pin, char mode);procedures.c: 48: {;procedures.c: 4
                                 9:     switch(pin)
  1493                           	goto	l2386
  1494  0152  2A14               	line	51
  1495                           ;procedures.c: 50:     {;procedures.c: 51:         case 0x00:
  1496                           	
  1497                           l189:	
  1498  0153                     	line	52
  1499                           	
  1500                           l2336:	
  1501  0153                     ;procedures.c: 52:             TRISCbits.TRISC0 = mode;
  1502                           	rrf	(pinMode@mode),w
  1503  0153  0C70               	bsf	status, 5	;RP0=1, select bank1
  1504  0154  1683               	bcf	status, 6	;RP1=0, select bank1
  1505  0155  1303               	skipc
  1506  0156  1C03               	bcf	(135)^080h,0	;volatile
  1507  0157  1007               	skipnc
  1508  0158  1803               	bsf	(135)^080h,0	;volatile
  1509  0159  1407               	line	53
  1510                           ;procedures.c: 53:             break;
  1511                           	goto	l214
  1512  015A  2A66               	line	54
  1513                           ;procedures.c: 54:         case 0x01:
  1514                           	
  1515                           l191:	
  1516  015B                     	line	55
  1517                           	
  1518                           l2338:	
  1519  015B                     ;procedures.c: 55:             TRISCbits.TRISC1 = mode;
  1520                           	rrf	(pinMode@mode),w
  1521  015B  0C70               	bsf	status, 5	;RP0=1, select bank1
  1522  015C  1683               	bcf	status, 6	;RP1=0, select bank1
  1523  015D  1303               	skipc
  1524  015E  1C03               	bcf	(135)^080h,1	;volatile
  1525  015F  1087               	skipnc
  1526  0160  1803               	bsf	(135)^080h,1	;volatile
  1527  0161  1487               	line	56
  1528                           ;procedures.c: 56:             break;
  1529                           	goto	l214
  1530  0162  2A66               	line	57
  1531                           ;procedures.c: 57:         case 0x02:
  1532                           	
  1533                           l192:	
  1534  0163                     	line	58
  1535                           	
  1536                           l2340:	
  1537  0163                     ;procedures.c: 58:             TRISCbits.TRISC2 = mode;
  1538                           	rrf	(pinMode@mode),w
  1539  0163  0C70               	bsf	status, 5	;RP0=1, select bank1
  1540  0164  1683               	bcf	status, 6	;RP1=0, select bank1
  1541  0165  1303               	skipc
  1542  0166  1C03               	bcf	(135)^080h,2	;volatile
  1543  0167  1107               	skipnc
  1544  0168  1803               	bsf	(135)^080h,2	;volatile
  1545  0169  1507               	line	59
  1546                           ;procedures.c: 59:             break;
  1547                           	goto	l214
  1548  016A  2A66               	line	60
  1549                           ;procedures.c: 60:         case 0x03:
  1550                           	
  1551                           l193:	
  1552  016B                     	line	61
  1553                           	
  1554                           l2342:	
  1555  016B                     ;procedures.c: 61:             TRISCbits.TRISC3 = mode;
  1556                           	rrf	(pinMode@mode),w
  1557  016B  0C70               	bsf	status, 5	;RP0=1, select bank1
  1558  016C  1683               	bcf	status, 6	;RP1=0, select bank1
  1559  016D  1303               	skipc
  1560  016E  1C03               	bcf	(135)^080h,3	;volatile
  1561  016F  1187               	skipnc
  1562  0170  1803               	bsf	(135)^080h,3	;volatile
  1563  0171  1587               	line	62
  1564                           ;procedures.c: 62:             break;
  1565                           	goto	l214
  1566  0172  2A66               	line	63
  1567                           ;procedures.c: 63:         case 0x04:
  1568                           	
  1569                           l194:	
  1570  0173                     	line	64
  1571                           	
  1572                           l2344:	
  1573  0173                     ;procedures.c: 64:             TRISDbits.TRISD0 = mode;
  1574                           	rrf	(pinMode@mode),w
  1575  0173  0C70               	bsf	status, 5	;RP0=1, select bank1
  1576  0174  1683               	bcf	status, 6	;RP1=0, select bank1
  1577  0175  1303               	skipc
  1578  0176  1C03               	bcf	(136)^080h,0	;volatile
  1579  0177  1008               	skipnc
  1580  0178  1803               	bsf	(136)^080h,0	;volatile
  1581  0179  1408               	line	65
  1582                           ;procedures.c: 65:             break;
  1583                           	goto	l214
  1584  017A  2A66               	line	66
  1585                           ;procedures.c: 66:         case 0x05:
  1586                           	
  1587                           l195:	
  1588  017B                     	line	67
  1589                           	
  1590                           l2346:	
  1591  017B                     ;procedures.c: 67:             TRISDbits.TRISD1 = mode;
  1592                           	rrf	(pinMode@mode),w
  1593  017B  0C70               	bsf	status, 5	;RP0=1, select bank1
  1594  017C  1683               	bcf	status, 6	;RP1=0, select bank1
  1595  017D  1303               	skipc
  1596  017E  1C03               	bcf	(136)^080h,1	;volatile
  1597  017F  1088               	skipnc
  1598  0180  1803               	bsf	(136)^080h,1	;volatile
  1599  0181  1488               	line	68
  1600                           ;procedures.c: 68:             break;
  1601                           	goto	l214
  1602  0182  2A66               	line	69
  1603                           ;procedures.c: 69:         case 0x06:
  1604                           	
  1605                           l196:	
  1606  0183                     	line	70
  1607                           	
  1608                           l2348:	
  1609  0183                     ;procedures.c: 70:             TRISDbits.TRISD2 = mode;
  1610                           	rrf	(pinMode@mode),w
  1611  0183  0C70               	bsf	status, 5	;RP0=1, select bank1
  1612  0184  1683               	bcf	status, 6	;RP1=0, select bank1
  1613  0185  1303               	skipc
  1614  0186  1C03               	bcf	(136)^080h,2	;volatile
  1615  0187  1108               	skipnc
  1616  0188  1803               	bsf	(136)^080h,2	;volatile
  1617  0189  1508               	line	71
  1618                           ;procedures.c: 71:             break;
  1619                           	goto	l214
  1620  018A  2A66               	line	72
  1621                           ;procedures.c: 72:         case 0x07:
  1622                           	
  1623                           l197:	
  1624  018B                     	line	73
  1625                           	
  1626                           l2350:	
  1627  018B                     ;procedures.c: 73:             TRISDbits.TRISD3 = mode;
  1628                           	rrf	(pinMode@mode),w
  1629  018B  0C70               	bsf	status, 5	;RP0=1, select bank1
  1630  018C  1683               	bcf	status, 6	;RP1=0, select bank1
  1631  018D  1303               	skipc
  1632  018E  1C03               	bcf	(136)^080h,3	;volatile
  1633  018F  1188               	skipnc
  1634  0190  1803               	bsf	(136)^080h,3	;volatile
  1635  0191  1588               	line	74
  1636                           ;procedures.c: 74:             break;
  1637                           	goto	l214
  1638  0192  2A66               	line	75
  1639                           ;procedures.c: 75:         case 0x08:
  1640                           	
  1641                           l198:	
  1642  0193                     	line	76
  1643                           	
  1644                           l2352:	
  1645  0193                     ;procedures.c: 76:             TRISCbits.TRISC4 = mode;
  1646                           	rrf	(pinMode@mode),w
  1647  0193  0C70               	bsf	status, 5	;RP0=1, select bank1
  1648  0194  1683               	bcf	status, 6	;RP1=0, select bank1
  1649  0195  1303               	skipc
  1650  0196  1C03               	bcf	(135)^080h,4	;volatile
  1651  0197  1207               	skipnc
  1652  0198  1803               	bsf	(135)^080h,4	;volatile
  1653  0199  1607               	line	77
  1654                           ;procedures.c: 77:             break;
  1655                           	goto	l214
  1656  019A  2A66               	line	78
  1657                           ;procedures.c: 78:         case 0x09:
  1658                           	
  1659                           l199:	
  1660  019B                     	line	79
  1661                           	
  1662                           l2354:	
  1663  019B                     ;procedures.c: 79:             TRISCbits.TRISC5 = mode;
  1664                           	rrf	(pinMode@mode),w
  1665  019B  0C70               	bsf	status, 5	;RP0=1, select bank1
  1666  019C  1683               	bcf	status, 6	;RP1=0, select bank1
  1667  019D  1303               	skipc
  1668  019E  1C03               	bcf	(135)^080h,5	;volatile
  1669  019F  1287               	skipnc
  1670  01A0  1803               	bsf	(135)^080h,5	;volatile
  1671  01A1  1687               	line	80
  1672                           ;procedures.c: 80:             break;
  1673                           	goto	l214
  1674  01A2  2A66               	line	81
  1675                           ;procedures.c: 81:         case 0x0A:
  1676                           	
  1677                           l200:	
  1678  01A3                     	line	82
  1679                           	
  1680                           l2356:	
  1681  01A3                     ;procedures.c: 82:             TRISCbits.TRISC6 = mode;
  1682                           	rrf	(pinMode@mode),w
  1683  01A3  0C70               	bsf	status, 5	;RP0=1, select bank1
  1684  01A4  1683               	bcf	status, 6	;RP1=0, select bank1
  1685  01A5  1303               	skipc
  1686  01A6  1C03               	bcf	(135)^080h,6	;volatile
  1687  01A7  1307               	skipnc
  1688  01A8  1803               	bsf	(135)^080h,6	;volatile
  1689  01A9  1707               	line	83
  1690                           ;procedures.c: 83:             break;
  1691                           	goto	l214
  1692  01AA  2A66               	line	84
  1693                           ;procedures.c: 84:         case 0x0B:
  1694                           	
  1695                           l201:	
  1696  01AB                     	line	85
  1697                           	
  1698                           l2358:	
  1699  01AB                     ;procedures.c: 85:             TRISCbits.TRISC7 = mode;
  1700                           	rrf	(pinMode@mode),w
  1701  01AB  0C70               	bsf	status, 5	;RP0=1, select bank1
  1702  01AC  1683               	bcf	status, 6	;RP1=0, select bank1
  1703  01AD  1303               	skipc
  1704  01AE  1C03               	bcf	(135)^080h,7	;volatile
  1705  01AF  1387               	skipnc
  1706  01B0  1803               	bsf	(135)^080h,7	;volatile
  1707  01B1  1787               	line	86
  1708                           ;procedures.c: 86:             break;
  1709                           	goto	l214
  1710  01B2  2A66               	line	87
  1711                           ;procedures.c: 87:         case 0x0C:
  1712                           	
  1713                           l202:	
  1714  01B3                     	line	88
  1715                           	
  1716                           l2360:	
  1717  01B3                     ;procedures.c: 88:             TRISDbits.TRISD4 = mode;
  1718                           	rrf	(pinMode@mode),w
  1719  01B3  0C70               	bsf	status, 5	;RP0=1, select bank1
  1720  01B4  1683               	bcf	status, 6	;RP1=0, select bank1
  1721  01B5  1303               	skipc
  1722  01B6  1C03               	bcf	(136)^080h,4	;volatile
  1723  01B7  1208               	skipnc
  1724  01B8  1803               	bsf	(136)^080h,4	;volatile
  1725  01B9  1608               	line	89
  1726                           ;procedures.c: 89:             break;
  1727                           	goto	l214
  1728  01BA  2A66               	line	90
  1729                           ;procedures.c: 90:         case 0x0D:
  1730                           	
  1731                           l203:	
  1732  01BB                     	line	91
  1733                           	
  1734                           l2362:	
  1735  01BB                     ;procedures.c: 91:             TRISDbits.TRISD5 = mode;
  1736                           	rrf	(pinMode@mode),w
  1737  01BB  0C70               	bsf	status, 5	;RP0=1, select bank1
  1738  01BC  1683               	bcf	status, 6	;RP1=0, select bank1
  1739  01BD  1303               	skipc
  1740  01BE  1C03               	bcf	(136)^080h,5	;volatile
  1741  01BF  1288               	skipnc
  1742  01C0  1803               	bsf	(136)^080h,5	;volatile
  1743  01C1  1688               	line	92
  1744                           ;procedures.c: 92:             break;
  1745                           	goto	l214
  1746  01C2  2A66               	line	93
  1747                           ;procedures.c: 93:         case 0x0E:
  1748                           	
  1749                           l204:	
  1750  01C3                     	line	94
  1751                           	
  1752                           l2364:	
  1753  01C3                     ;procedures.c: 94:             TRISDbits.TRISD6 = mode;
  1754                           	rrf	(pinMode@mode),w
  1755  01C3  0C70               	bsf	status, 5	;RP0=1, select bank1
  1756  01C4  1683               	bcf	status, 6	;RP1=0, select bank1
  1757  01C5  1303               	skipc
  1758  01C6  1C03               	bcf	(136)^080h,6	;volatile
  1759  01C7  1308               	skipnc
  1760  01C8  1803               	bsf	(136)^080h,6	;volatile
  1761  01C9  1708               	line	95
  1762                           ;procedures.c: 95:             break;
  1763                           	goto	l214
  1764  01CA  2A66               	line	96
  1765                           ;procedures.c: 96:         case 0x0F:
  1766                           	
  1767                           l205:	
  1768  01CB                     	line	97
  1769                           	
  1770                           l2366:	
  1771  01CB                     ;procedures.c: 97:             TRISDbits.TRISD7 = mode;
  1772                           	rrf	(pinMode@mode),w
  1773  01CB  0C70               	bsf	status, 5	;RP0=1, select bank1
  1774  01CC  1683               	bcf	status, 6	;RP1=0, select bank1
  1775  01CD  1303               	skipc
  1776  01CE  1C03               	bcf	(136)^080h,7	;volatile
  1777  01CF  1388               	skipnc
  1778  01D0  1803               	bsf	(136)^080h,7	;volatile
  1779  01D1  1788               	line	98
  1780                           ;procedures.c: 98:             break;
  1781                           	goto	l214
  1782  01D2  2A66               	line	99
  1783                           ;procedures.c: 99:         case 0x10:
  1784                           	
  1785                           l206:	
  1786  01D3                     	line	100
  1787                           	
  1788                           l2368:	
  1789  01D3                     ;procedures.c: 100:             TRISBbits.TRISB0 = mode;
  1790                           	rrf	(pinMode@mode),w
  1791  01D3  0C70               	bsf	status, 5	;RP0=1, select bank1
  1792  01D4  1683               	bcf	status, 6	;RP1=0, select bank1
  1793  01D5  1303               	skipc
  1794  01D6  1C03               	bcf	(134)^080h,0	;volatile
  1795  01D7  1006               	skipnc
  1796  01D8  1803               	bsf	(134)^080h,0	;volatile
  1797  01D9  1406               	line	101
  1798                           ;procedures.c: 101:             break;
  1799                           	goto	l214
  1800  01DA  2A66               	line	102
  1801                           ;procedures.c: 102:         case 0x11:
  1802                           	
  1803                           l207:	
  1804  01DB                     	line	103
  1805                           	
  1806                           l2370:	
  1807  01DB                     ;procedures.c: 103:             TRISBbits.TRISB1 = mode;
  1808                           	rrf	(pinMode@mode),w
  1809  01DB  0C70               	bsf	status, 5	;RP0=1, select bank1
  1810  01DC  1683               	bcf	status, 6	;RP1=0, select bank1
  1811  01DD  1303               	skipc
  1812  01DE  1C03               	bcf	(134)^080h,1	;volatile
  1813  01DF  1086               	skipnc
  1814  01E0  1803               	bsf	(134)^080h,1	;volatile
  1815  01E1  1486               	line	104
  1816                           ;procedures.c: 104:             break;
  1817                           	goto	l214
  1818  01E2  2A66               	line	105
  1819                           ;procedures.c: 105:         case 0x12:
  1820                           	
  1821                           l208:	
  1822  01E3                     	line	106
  1823                           	
  1824                           l2372:	
  1825  01E3                     ;procedures.c: 106:             TRISBbits.TRISB2 = mode;
  1826                           	rrf	(pinMode@mode),w
  1827  01E3  0C70               	bsf	status, 5	;RP0=1, select bank1
  1828  01E4  1683               	bcf	status, 6	;RP1=0, select bank1
  1829  01E5  1303               	skipc
  1830  01E6  1C03               	bcf	(134)^080h,2	;volatile
  1831  01E7  1106               	skipnc
  1832  01E8  1803               	bsf	(134)^080h,2	;volatile
  1833  01E9  1506               	line	107
  1834                           ;procedures.c: 107:             break;
  1835                           	goto	l214
  1836  01EA  2A66               	line	108
  1837                           ;procedures.c: 108:         case 0x13:
  1838                           	
  1839                           l209:	
  1840  01EB                     	line	109
  1841                           	
  1842                           l2374:	
  1843  01EB                     ;procedures.c: 109:             TRISBbits.TRISB3 = mode;
  1844                           	rrf	(pinMode@mode),w
  1845  01EB  0C70               	bsf	status, 5	;RP0=1, select bank1
  1846  01EC  1683               	bcf	status, 6	;RP1=0, select bank1
  1847  01ED  1303               	skipc
  1848  01EE  1C03               	bcf	(134)^080h,3	;volatile
  1849  01EF  1186               	skipnc
  1850  01F0  1803               	bsf	(134)^080h,3	;volatile
  1851  01F1  1586               	line	110
  1852                           ;procedures.c: 110:             break;
  1853                           	goto	l214
  1854  01F2  2A66               	line	111
  1855                           ;procedures.c: 111:         case 0x14:
  1856                           	
  1857                           l210:	
  1858  01F3                     	line	112
  1859                           	
  1860                           l2376:	
  1861  01F3                     ;procedures.c: 112:             TRISBbits.TRISB4 = mode;
  1862                           	rrf	(pinMode@mode),w
  1863  01F3  0C70               	bsf	status, 5	;RP0=1, select bank1
  1864  01F4  1683               	bcf	status, 6	;RP1=0, select bank1
  1865  01F5  1303               	skipc
  1866  01F6  1C03               	bcf	(134)^080h,4	;volatile
  1867  01F7  1206               	skipnc
  1868  01F8  1803               	bsf	(134)^080h,4	;volatile
  1869  01F9  1606               	line	113
  1870                           ;procedures.c: 113:             break;
  1871                           	goto	l214
  1872  01FA  2A66               	line	114
  1873                           ;procedures.c: 114:         case 0x15:
  1874                           	
  1875                           l211:	
  1876  01FB                     	line	115
  1877                           	
  1878                           l2378:	
  1879  01FB                     ;procedures.c: 115:             TRISBbits.TRISB5 = mode;
  1880                           	rrf	(pinMode@mode),w
  1881  01FB  0C70               	bsf	status, 5	;RP0=1, select bank1
  1882  01FC  1683               	bcf	status, 6	;RP1=0, select bank1
  1883  01FD  1303               	skipc
  1884  01FE  1C03               	bcf	(134)^080h,5	;volatile
  1885  01FF  1286               	skipnc
  1886  0200  1803               	bsf	(134)^080h,5	;volatile
  1887  0201  1686               	line	116
  1888                           ;procedures.c: 116:             break;
  1889                           	goto	l214
  1890  0202  2A66               	line	117
  1891                           ;procedures.c: 117:         case 0x16:
  1892                           	
  1893                           l212:	
  1894  0203                     	line	118
  1895                           	
  1896                           l2380:	
  1897  0203                     ;procedures.c: 118:             TRISBbits.TRISB6 = mode;
  1898                           	rrf	(pinMode@mode),w
  1899  0203  0C70               	bsf	status, 5	;RP0=1, select bank1
  1900  0204  1683               	bcf	status, 6	;RP1=0, select bank1
  1901  0205  1303               	skipc
  1902  0206  1C03               	bcf	(134)^080h,6	;volatile
  1903  0207  1306               	skipnc
  1904  0208  1803               	bsf	(134)^080h,6	;volatile
  1905  0209  1706               	line	119
  1906                           ;procedures.c: 119:             break;
  1907                           	goto	l214
  1908  020A  2A66               	line	120
  1909                           ;procedures.c: 120:         case 0x17:
  1910                           	
  1911                           l213:	
  1912  020B                     	line	121
  1913                           	
  1914                           l2382:	
  1915  020B                     ;procedures.c: 121:             TRISBbits.TRISB7 = mode;
  1916                           	rrf	(pinMode@mode),w
  1917  020B  0C70               	bsf	status, 5	;RP0=1, select bank1
  1918  020C  1683               	bcf	status, 6	;RP1=0, select bank1
  1919  020D  1303               	skipc
  1920  020E  1C03               	bcf	(134)^080h,7	;volatile
  1921  020F  1386               	skipnc
  1922  0210  1803               	bsf	(134)^080h,7	;volatile
  1923  0211  1786               	line	122
  1924                           ;procedures.c: 122:             break;
  1925                           	goto	l214
  1926  0212  2A66               	line	123
  1927                           	
  1928                           l2384:	
  1929  0213                     ;procedures.c: 123:     }
  1930                           	goto	l214
  1931  0213  2A66               	
  1932                           l188:	
  1933  0214                     	
  1934                           l2386:	
  1935  0214                     	movf	(pinMode@pin),w
  1936  0214  0873               	movwf	(??_pinMode+0)+0
  1937  0215  00F1               	clrf	(??_pinMode+0)+0+1
  1938  0216  01F2               	; Switch on 2 bytes has been partitioned into a top level switch of size 1, and 1 sub-s
                                 witches
  1939                           ; Switch size 1, requested type "space"
  1940                           ; Number of cases is 1, Range of values is 0 to 0
  1941                           ; switch strategies available:
  1942                           ; Name         Instructions Cycles
  1943                           ; simple_byte            4     3 (average)
  1944                           ; direct_byte           11     8 (fixed)
  1945                           ; jumptable            260     6 (fixed)
  1946                           ;	Chosen strategy is simple_byte
  1947                           
  1948                           	movf 1+(??_pinMode+0)+0,w
  1949  0217  0872               	opt asmopt_push
  1950                           	opt asmopt_off
  1951                           	xorlw	0^0	; case 0
  1952  0218  3A00               	skipnz
  1953  0219  1903               	goto	l2650
  1954  021A  2A1C               	goto	l214
  1955  021B  2A66               	opt asmopt_pop
  1956                           	
  1957                           l2650:	
  1958  021C                     ; Switch size 1, requested type "space"
  1959                           ; Number of cases is 24, Range of values is 0 to 23
  1960                           ; switch strategies available:
  1961                           ; Name         Instructions Cycles
  1962                           ; simple_byte           73    37 (average)
  1963                           ; direct_byte           80     8 (fixed)
  1964                           ; jumptable            260     6 (fixed)
  1965                           ;	Chosen strategy is simple_byte
  1966                           
  1967                           	movf 0+(??_pinMode+0)+0,w
  1968  021C  0871               	opt asmopt_push
  1969                           	opt asmopt_off
  1970                           	xorlw	0^0	; case 0
  1971  021D  3A00               	skipnz
  1972  021E  1903               	goto	l2336
  1973  021F  2953               	xorlw	1^0	; case 1
  1974  0220  3A01               	skipnz
  1975  0221  1903               	goto	l2338
  1976  0222  295B               	xorlw	2^1	; case 2
  1977  0223  3A03               	skipnz
  1978  0224  1903               	goto	l2340
  1979  0225  2963               	xorlw	3^2	; case 3
  1980  0226  3A01               	skipnz
  1981  0227  1903               	goto	l2342
  1982  0228  296B               	xorlw	4^3	; case 4
  1983  0229  3A07               	skipnz
  1984  022A  1903               	goto	l2344
  1985  022B  2973               	xorlw	5^4	; case 5
  1986  022C  3A01               	skipnz
  1987  022D  1903               	goto	l2346
  1988  022E  297B               	xorlw	6^5	; case 6
  1989  022F  3A03               	skipnz
  1990  0230  1903               	goto	l2348
  1991  0231  2983               	xorlw	7^6	; case 7
  1992  0232  3A01               	skipnz
  1993  0233  1903               	goto	l2350
  1994  0234  298B               	xorlw	8^7	; case 8
  1995  0235  3A0F               	skipnz
  1996  0236  1903               	goto	l2352
  1997  0237  2993               	xorlw	9^8	; case 9
  1998  0238  3A01               	skipnz
  1999  0239  1903               	goto	l2354
  2000  023A  299B               	xorlw	10^9	; case 10
  2001  023B  3A03               	skipnz
  2002  023C  1903               	goto	l2356
  2003  023D  29A3               	xorlw	11^10	; case 11
  2004  023E  3A01               	skipnz
  2005  023F  1903               	goto	l2358
  2006  0240  29AB               	xorlw	12^11	; case 12
  2007  0241  3A07               	skipnz
  2008  0242  1903               	goto	l2360
  2009  0243  29B3               	xorlw	13^12	; case 13
  2010  0244  3A01               	skipnz
  2011  0245  1903               	goto	l2362
  2012  0246  29BB               	xorlw	14^13	; case 14
  2013  0247  3A03               	skipnz
  2014  0248  1903               	goto	l2364
  2015  0249  29C3               	xorlw	15^14	; case 15
  2016  024A  3A01               	skipnz
  2017  024B  1903               	goto	l2366
  2018  024C  29CB               	xorlw	16^15	; case 16
  2019  024D  3A1F               	skipnz
  2020  024E  1903               	goto	l2368
  2021  024F  29D3               	xorlw	17^16	; case 17
  2022  0250  3A01               	skipnz
  2023  0251  1903               	goto	l2370
  2024  0252  29DB               	xorlw	18^17	; case 18
  2025  0253  3A03               	skipnz
  2026  0254  1903               	goto	l2372
  2027  0255  29E3               	xorlw	19^18	; case 19
  2028  0256  3A01               	skipnz
  2029  0257  1903               	goto	l2374
  2030  0258  29EB               	xorlw	20^19	; case 20
  2031  0259  3A07               	skipnz
  2032  025A  1903               	goto	l2376
  2033  025B  29F3               	xorlw	21^20	; case 21
  2034  025C  3A01               	skipnz
  2035  025D  1903               	goto	l2378
  2036  025E  29FB               	xorlw	22^21	; case 22
  2037  025F  3A03               	skipnz
  2038  0260  1903               	goto	l2380
  2039  0261  2A03               	xorlw	23^22	; case 23
  2040  0262  3A01               	skipnz
  2041  0263  1903               	goto	l2382
  2042  0264  2A0B               	goto	l214
  2043  0265  2A66               	opt asmopt_pop
  2044                           
  2045                           	
  2046                           l190:	
  2047  0266                     	line	124
  2048                           	
  2049                           l214:	
  2050  0266                     	return
  2051  0266  0008               	opt stack 0
  2052                           GLOBAL	__end_of_pinMode
  2053                           	__end_of_pinMode:
  2054  0267                     	signat	_pinMode,8313
  2055                           	global	_SerialBegin
  2056                           
  2057 ;; *************** function _SerialBegin *****************
  2058 ;; Defined at:
  2059 ;;		line 338 in file "procedures.c"
  2060 ;; Parameters:    Size  Location     Type
  2061 ;;  baudrate        4    6[BANK0 ] const long 
  2062 ;; Auto vars:     Size  Location     Type
  2063 ;;  x               2    9[COMMON] unsigned int 
  2064 ;; Return value:  Size  Location     Type
  2065 ;;                  1    wreg      unsigned char 
  2066 ;; Registers used:
  2067 ;;		wreg, status,2, status,0, pclath, cstack
  2068 ;; Tracked objects:
  2069 ;;		On entry : 0/0
  2070 ;;		On exit  : 0/0
  2071 ;;		Unchanged: 0/0
  2072 ;; Data sizes:     COMMON   BANK0   BANK1   BANK3   BANK2
  2073 ;;      Params:         0       4       0       0       0
  2074 ;;      Locals:         2       0       0       0       0
  2075 ;;      Temps:          0      12       0       0       0
  2076 ;;      Totals:         2      16       0       0       0
  2077 ;;Total ram usage:       18 bytes
  2078 ;; Hardware stack levels used:    1
  2079 ;; Hardware stack levels required when called:    1
  2080 ;; This function calls:
  2081 ;;		___aldiv
  2082 ;; This function is called by:
  2083 ;;		_setup
  2084 ;; This function uses a non-reentrant model
  2085 ;;
  2086                           psect	text3,local,class=CODE,delta=2,merge=1,group=0
  2087                           	line	338
  2088                           global __ptext3
  2089                           __ptext3:	;psect for function _SerialBegin
  2090  0062                     psect	text3
  2091                           	file	"procedures.c"
  2092                           	line	338
  2093                           	global	__size_of_SerialBegin
  2094                           	__size_of_SerialBegin	equ	__end_of_SerialBegin-_SerialBegin
  2095  00EF                     	
  2096                           _SerialBegin:	
  2097  0062                     ;incstack = 0
  2098                           	opt	stack 5
  2099                           ; Regs used in _SerialBegin: [wreg+status,2+status,0+pclath+cstack]
  2100                           	line	341
  2101                           	
  2102                           l2308:	
  2103  0062                     ;procedures.c: 338: char SerialBegin(const long int baudrate);procedures.c: 339: {;proce
                                 dures.c: 340:   unsigned int x;;procedures.c: 341:   x = (20000000 - baudrate*64)/(baudr
                                 ate*64);
  2104                           	bcf	status, 5	;RP0=0, select bank0
  2105  0062  1283               	bcf	status, 6	;RP1=0, select bank0
  2106  0063  1303               	movf	(SerialBegin@baudrate),w
  2107  0064  0826               	movwf	(??_SerialBegin+0)+0
  2108  0065  00AA               	movf	(SerialBegin@baudrate+1),w
  2109  0066  0827               	movwf	((??_SerialBegin+0)+0+1)
  2110  0067  00AB               	movf	(SerialBegin@baudrate+2),w
  2111  0068  0828               	movwf	((??_SerialBegin+0)+0+2)
  2112  0069  00AC               	movf	(SerialBegin@baudrate+3),w
  2113  006A  0829               	movwf	((??_SerialBegin+0)+0+3)
  2114  006B  00AD               	movlw	06h
  2115  006C  3006               u2515:
  2116  006D                     	clrc
  2117  006D  1003               	rlf	(??_SerialBegin+0)+0,f
  2118  006E  0DAA               	rlf	(??_SerialBegin+0)+1,f
  2119  006F  0DAB               	rlf	(??_SerialBegin+0)+2,f
  2120  0070  0DAC               	rlf	(??_SerialBegin+0)+3,f
  2121  0071  0DAD               u2510:
  2122  0072                     	addlw	-1
  2123  0072  3EFF               	skipz
  2124  0073  1D03               	goto	u2515
  2125  0074  286D               	movf	3+(??_SerialBegin+0)+0,w
  2126  0075  082D               	movwf	(___aldiv@divisor+3)
  2127  0076  00F3               	movf	2+(??_SerialBegin+0)+0,w
  2128  0077  082C               	movwf	(___aldiv@divisor+2)
  2129  0078  00F2               	movf	1+(??_SerialBegin+0)+0,w
  2130  0079  082B               	movwf	(___aldiv@divisor+1)
  2131  007A  00F1               	movf	0+(??_SerialBegin+0)+0,w
  2132  007B  082A               	movwf	(___aldiv@divisor)
  2133  007C  00F0               
  2134                           	movlw	0
  2135  007D  3000               	movwf	((??_SerialBegin+4)+0)
  2136  007E  00AE               	movlw	02Dh
  2137  007F  302D               	movwf	((??_SerialBegin+4)+0+1)
  2138  0080  00AF               	movlw	031h
  2139  0081  3031               	movwf	((??_SerialBegin+4)+0+2)
  2140  0082  00B0               	movlw	01h
  2141  0083  3001               	movwf	((??_SerialBegin+4)+0+3)
  2142  0084  00B1               	movf	(SerialBegin@baudrate),w
  2143  0085  0826               	movwf	(??_SerialBegin+8)+0
  2144  0086  00B2               	movf	(SerialBegin@baudrate+1),w
  2145  0087  0827               	movwf	((??_SerialBegin+8)+0+1)
  2146  0088  00B3               	movf	(SerialBegin@baudrate+2),w
  2147  0089  0828               	movwf	((??_SerialBegin+8)+0+2)
  2148  008A  00B4               	movf	(SerialBegin@baudrate+3),w
  2149  008B  0829               	movwf	((??_SerialBegin+8)+0+3)
  2150  008C  00B5               	movlw	06h
  2151  008D  3006               u2525:
  2152  008E                     	clrc
  2153  008E  1003               	rlf	(??_SerialBegin+8)+0,f
  2154  008F  0DB2               	rlf	(??_SerialBegin+8)+1,f
  2155  0090  0DB3               	rlf	(??_SerialBegin+8)+2,f
  2156  0091  0DB4               	rlf	(??_SerialBegin+8)+3,f
  2157  0092  0DB5               u2520:
  2158  0093                     	addlw	-1
  2159  0093  3EFF               	skipz
  2160  0094  1D03               	goto	u2525
  2161  0095  288E               	comf	(??_SerialBegin+8)+0,f
  2162  0096  09B2               	comf	(??_SerialBegin+8)+1,f
  2163  0097  09B3               	comf	(??_SerialBegin+8)+2,f
  2164  0098  09B4               	comf	(??_SerialBegin+8)+3,f
  2165  0099  09B5               	incf	(??_SerialBegin+8)+0,f
  2166  009A  0AB2               	skipnz
  2167  009B  1903               	incf	(??_SerialBegin+8)+1,f
  2168  009C  0AB3               	skipnz
  2169  009D  1903               	incf	(??_SerialBegin+8)+2,f
  2170  009E  0AB4               	skipnz
  2171  009F  1903               	incf	(??_SerialBegin+8)+3,f
  2172  00A0  0AB5               	movf	0+(??_SerialBegin+8)+0,w
  2173  00A1  0832               	addwf	(??_SerialBegin+4)+0,f
  2174  00A2  07AE               	movf	1+(??_SerialBegin+8)+0,w
  2175  00A3  0833               	skipnc
  2176  00A4  1803               	incfsz	1+(??_SerialBegin+8)+0,w
  2177  00A5  0F33               	goto	u2530
  2178  00A6  28A8               	goto	u2531
  2179  00A7  28A9               u2530:
  2180  00A8                     	addwf	(??_SerialBegin+4)+1,f
  2181  00A8  07AF               u2531:
  2182  00A9                     	movf	2+(??_SerialBegin+8)+0,w
  2183  00A9  0834               	skipnc
  2184  00AA  1803               	incfsz	2+(??_SerialBegin+8)+0,w
  2185  00AB  0F34               	goto	u2532
  2186  00AC  28AE               	goto	u2533
  2187  00AD  28AF               u2532:
  2188  00AE                     	addwf	(??_SerialBegin+4)+2,f
  2189  00AE  07B0               u2533:
  2190  00AF                     	movf	3+(??_SerialBegin+8)+0,w
  2191  00AF  0835               	skipnc
  2192  00B0  1803               	incf	3+(??_SerialBegin+8)+0,w
  2193  00B1  0A35               	addwf	(??_SerialBegin+4)+3,f
  2194  00B2  07B1               	movf	3+(??_SerialBegin+4)+0,w
  2195  00B3  0831               	movwf	(___aldiv@dividend+3)
  2196  00B4  00F7               	movf	2+(??_SerialBegin+4)+0,w
  2197  00B5  0830               	movwf	(___aldiv@dividend+2)
  2198  00B6  00F6               	movf	1+(??_SerialBegin+4)+0,w
  2199  00B7  082F               	movwf	(___aldiv@dividend+1)
  2200  00B8  00F5               	movf	0+(??_SerialBegin+4)+0,w
  2201  00B9  082E               	movwf	(___aldiv@dividend)
  2202  00BA  00F4               
  2203                           	fcall	___aldiv
  2204  00BB  120A  158A  24FC  120A  118A  	movf	(1+(?___aldiv)),w
  2205  00C0  0871               	movwf	(SerialBegin@x+1)
  2206  00C1  00FA               	movf	(0+(?___aldiv)),w
  2207  00C2  0870               	movwf	(SerialBegin@x)
  2208  00C3  00F9               	line	342
  2209                           	
  2210                           l2310:	
  2211  00C4                     ;procedures.c: 342:   if(x>255)
  2212                           	movlw	01h
  2213  00C4  3001               	subwf	(SerialBegin@x+1),w
  2214  00C5  027A               	movlw	0
  2215  00C6  3000               	skipnz
  2216  00C7  1903               	subwf	(SerialBegin@x),w
  2217  00C8  0279               	skipc
  2218  00C9  1C03               	goto	u2541
  2219  00CA  28CC               	goto	u2540
  2220  00CB  28CD               u2541:
  2221  00CC                     	goto	l2316
  2222  00CC  2933               u2540:
  2223  00CD                     	line	344
  2224                           	
  2225                           l2312:	
  2226  00CD                     ;procedures.c: 343:   {;procedures.c: 344:     x = (20000000 - baudrate*16)/(baudrate*16
                                 );
  2227                           	bcf	status, 5	;RP0=0, select bank0
  2228  00CD  1283               	bcf	status, 6	;RP1=0, select bank0
  2229  00CE  1303               	movf	(SerialBegin@baudrate),w
  2230  00CF  0826               	movwf	(??_SerialBegin+0)+0
  2231  00D0  00AA               	movf	(SerialBegin@baudrate+1),w
  2232  00D1  0827               	movwf	((??_SerialBegin+0)+0+1)
  2233  00D2  00AB               	movf	(SerialBegin@baudrate+2),w
  2234  00D3  0828               	movwf	((??_SerialBegin+0)+0+2)
  2235  00D4  00AC               	movf	(SerialBegin@baudrate+3),w
  2236  00D5  0829               	movwf	((??_SerialBegin+0)+0+3)
  2237  00D6  00AD               	movlw	04h
  2238  00D7  3004               u2555:
  2239  00D8                     	clrc
  2240  00D8  1003               	rlf	(??_SerialBegin+0)+0,f
  2241  00D9  0DAA               	rlf	(??_SerialBegin+0)+1,f
  2242  00DA  0DAB               	rlf	(??_SerialBegin+0)+2,f
  2243  00DB  0DAC               	rlf	(??_SerialBegin+0)+3,f
  2244  00DC  0DAD               u2550:
  2245  00DD                     	addlw	-1
  2246  00DD  3EFF               	skipz
  2247  00DE  1D03               	goto	u2555
  2248  00DF  28D8               	movf	3+(??_SerialBegin+0)+0,w
  2249  00E0  082D               	movwf	(___aldiv@divisor+3)
  2250  00E1  00F3               	movf	2+(??_SerialBegin+0)+0,w
  2251  00E2  082C               	movwf	(___aldiv@divisor+2)
  2252  00E3  00F2               	movf	1+(??_SerialBegin+0)+0,w
  2253  00E4  082B               	movwf	(___aldiv@divisor+1)
  2254  00E5  00F1               	movf	0+(??_SerialBegin+0)+0,w
  2255  00E6  082A               	movwf	(___aldiv@divisor)
  2256  00E7  00F0               
  2257                           	movlw	0
  2258  00E8  3000               	movwf	((??_SerialBegin+4)+0)
  2259  00E9  00AE               	movlw	02Dh
  2260  00EA  302D               	movwf	((??_SerialBegin+4)+0+1)
  2261  00EB  00AF               	movlw	031h
  2262  00EC  3031               	movwf	((??_SerialBegin+4)+0+2)
  2263  00ED  00B0               	movlw	01h
  2264  00EE  3001               	movwf	((??_SerialBegin+4)+0+3)
  2265  00EF  00B1               	movf	(SerialBegin@baudrate),w
  2266  00F0  0826               	movwf	(??_SerialBegin+8)+0
  2267  00F1  00B2               	movf	(SerialBegin@baudrate+1),w
  2268  00F2  0827               	movwf	((??_SerialBegin+8)+0+1)
  2269  00F3  00B3               	movf	(SerialBegin@baudrate+2),w
  2270  00F4  0828               	movwf	((??_SerialBegin+8)+0+2)
  2271  00F5  00B4               	movf	(SerialBegin@baudrate+3),w
  2272  00F6  0829               	movwf	((??_SerialBegin+8)+0+3)
  2273  00F7  00B5               	movlw	04h
  2274  00F8  3004               u2565:
  2275  00F9                     	clrc
  2276  00F9  1003               	rlf	(??_SerialBegin+8)+0,f
  2277  00FA  0DB2               	rlf	(??_SerialBegin+8)+1,f
  2278  00FB  0DB3               	rlf	(??_SerialBegin+8)+2,f
  2279  00FC  0DB4               	rlf	(??_SerialBegin+8)+3,f
  2280  00FD  0DB5               u2560:
  2281  00FE                     	addlw	-1
  2282  00FE  3EFF               	skipz
  2283  00FF  1D03               	goto	u2565
  2284  0100  28F9               	comf	(??_SerialBegin+8)+0,f
  2285  0101  09B2               	comf	(??_SerialBegin+8)+1,f
  2286  0102  09B3               	comf	(??_SerialBegin+8)+2,f
  2287  0103  09B4               	comf	(??_SerialBegin+8)+3,f
  2288  0104  09B5               	incf	(??_SerialBegin+8)+0,f
  2289  0105  0AB2               	skipnz
  2290  0106  1903               	incf	(??_SerialBegin+8)+1,f
  2291  0107  0AB3               	skipnz
  2292  0108  1903               	incf	(??_SerialBegin+8)+2,f
  2293  0109  0AB4               	skipnz
  2294  010A  1903               	incf	(??_SerialBegin+8)+3,f
  2295  010B  0AB5               	movf	0+(??_SerialBegin+8)+0,w
  2296  010C  0832               	addwf	(??_SerialBegin+4)+0,f
  2297  010D  07AE               	movf	1+(??_SerialBegin+8)+0,w
  2298  010E  0833               	skipnc
  2299  010F  1803               	incfsz	1+(??_SerialBegin+8)+0,w
  2300  0110  0F33               	goto	u2570
  2301  0111  2913               	goto	u2571
  2302  0112  2914               u2570:
  2303  0113                     	addwf	(??_SerialBegin+4)+1,f
  2304  0113  07AF               u2571:
  2305  0114                     	movf	2+(??_SerialBegin+8)+0,w
  2306  0114  0834               	skipnc
  2307  0115  1803               	incfsz	2+(??_SerialBegin+8)+0,w
  2308  0116  0F34               	goto	u2572
  2309  0117  2919               	goto	u2573
  2310  0118  291A               u2572:
  2311  0119                     	addwf	(??_SerialBegin+4)+2,f
  2312  0119  07B0               u2573:
  2313  011A                     	movf	3+(??_SerialBegin+8)+0,w
  2314  011A  0835               	skipnc
  2315  011B  1803               	incf	3+(??_SerialBegin+8)+0,w
  2316  011C  0A35               	addwf	(??_SerialBegin+4)+3,f
  2317  011D  07B1               	movf	3+(??_SerialBegin+4)+0,w
  2318  011E  0831               	movwf	(___aldiv@dividend+3)
  2319  011F  00F7               	movf	2+(??_SerialBegin+4)+0,w
  2320  0120  0830               	movwf	(___aldiv@dividend+2)
  2321  0121  00F6               	movf	1+(??_SerialBegin+4)+0,w
  2322  0122  082F               	movwf	(___aldiv@dividend+1)
  2323  0123  00F5               	movf	0+(??_SerialBegin+4)+0,w
  2324  0124  082E               	movwf	(___aldiv@dividend)
  2325  0125  00F4               
  2326                           	fcall	___aldiv
  2327  0126  120A  158A  24FC  120A  118A  	movf	(1+(?___aldiv)),w
  2328  012B  0871               	movwf	(SerialBegin@x+1)
  2329  012C  00FA               	movf	(0+(?___aldiv)),w
  2330  012D  0870               	movwf	(SerialBegin@x)
  2331  012E  00F9               	line	345
  2332                           	
  2333                           l2314:	
  2334  012F                     ;procedures.c: 345:     BRGH = 1;
  2335                           	bsf	status, 5	;RP0=1, select bank1
  2336  012F  1683               	bcf	status, 6	;RP1=0, select bank1
  2337  0130  1303               	bsf	(1218/8)^080h,(1218)&7	;volatile
  2338  0131  1518               	goto	l2316
  2339  0132  2933               	line	346
  2340                           ;procedures.c: 346:   }
  2341                           	
  2342                           l307:	
  2343  0133                     	line	347
  2344                           	
  2345                           l2316:	
  2346  0133                     ;procedures.c: 347:   if(x<256)
  2347                           	movlw	01h
  2348  0133  3001               	subwf	(SerialBegin@x+1),w
  2349  0134  027A               	movlw	0
  2350  0135  3000               	skipnz
  2351  0136  1903               	subwf	(SerialBegin@x),w
  2352  0137  0279               	skipnc
  2353  0138  1803               	goto	u2581
  2354  0139  293B               	goto	u2580
  2355  013A  293C               u2581:
  2356  013B                     	goto	l309
  2357  013B  2950               u2580:
  2358  013C                     	line	349
  2359                           	
  2360                           l2318:	
  2361  013C                     ;procedures.c: 348:   {;procedures.c: 349:     SPBRG = x;
  2362                           	movf	(SerialBegin@x),w
  2363  013C  0879               	bsf	status, 5	;RP0=1, select bank1
  2364  013D  1683               	bcf	status, 6	;RP1=0, select bank1
  2365  013E  1303               	movwf	(153)^080h	;volatile
  2366  013F  0099               	line	350
  2367                           	
  2368                           l2320:	
  2369  0140                     ;procedures.c: 350:     SYNC = 0;
  2370                           	bcf	(1220/8)^080h,(1220)&7	;volatile
  2371  0140  1218               	line	351
  2372                           	
  2373                           l2322:	
  2374  0141                     ;procedures.c: 351:     SPEN = 1;
  2375                           	bcf	status, 5	;RP0=0, select bank0
  2376  0141  1283               	bcf	status, 6	;RP1=0, select bank0
  2377  0142  1303               	bsf	(199/8),(199)&7	;volatile
  2378  0143  1798               	line	352
  2379                           	
  2380                           l2324:	
  2381  0144                     ;procedures.c: 352:     TRISC7 = 1;
  2382                           	bsf	status, 5	;RP0=1, select bank1
  2383  0144  1683               	bcf	status, 6	;RP1=0, select bank1
  2384  0145  1303               	bsf	(1087/8)^080h,(1087)&7	;volatile
  2385  0146  1787               	line	353
  2386                           	
  2387                           l2326:	
  2388  0147                     ;procedures.c: 353:     TRISC6 = 1;
  2389                           	bsf	(1086/8)^080h,(1086)&7	;volatile
  2390  0147  1707               	line	354
  2391                           	
  2392                           l2328:	
  2393  0148                     ;procedures.c: 354:     CREN = 1;
  2394                           	bcf	status, 5	;RP0=0, select bank0
  2395  0148  1283               	bcf	status, 6	;RP1=0, select bank0
  2396  0149  1303               	bsf	(196/8),(196)&7	;volatile
  2397  014A  1618               	line	355
  2398                           	
  2399                           l2330:	
  2400  014B                     ;procedures.c: 355:     TXEN = 1;
  2401                           	bsf	status, 5	;RP0=1, select bank1
  2402  014B  1683               	bcf	status, 6	;RP1=0, select bank1
  2403  014C  1303               	bsf	(1221/8)^080h,(1221)&7	;volatile
  2404  014D  1698               	goto	l309
  2405  014E  2950               	line	356
  2406                           	
  2407                           l2332:	
  2408  014F                     ;procedures.c: 356:     return 1;;	Return value of _SerialBegin is never used
  2409                           	goto	l309
  2410  014F  2950               	line	357
  2411                           ;procedures.c: 357:   }
  2412                           	
  2413                           l308:	
  2414  0150                     	line	359
  2415                           ;procedures.c: 358:   return 0;;	Return value of _SerialBegin is never used
  2416                           	
  2417                           l309:	
  2418  0150                     	return
  2419  0150  0008               	opt stack 0
  2420                           GLOBAL	__end_of_SerialBegin
  2421                           	__end_of_SerialBegin:
  2422  0151                     	signat	_SerialBegin,4217
  2423                           	global	_loop
  2424                           
  2425 ;; *************** function _loop *****************
  2426 ;; Defined at:
  2427 ;;		line 25 in file "application.c"
  2428 ;; Parameters:    Size  Location     Type
  2429 ;;		None
  2430 ;; Auto vars:     Size  Location     Type
  2431 ;;  i               2   17[BANK1 ] int 
  2432 ;;  i               2   15[BANK1 ] int 
  2433 ;; Return value:  Size  Location     Type
  2434 ;;                  1    wreg      void 
  2435 ;; Registers used:
  2436 ;;		wreg, fsr0l, fsr0h, status,2, status,0, btemp+1, pclath, cstack
  2437 ;; Tracked objects:
  2438 ;;		On entry : 0/0
  2439 ;;		On exit  : 0/0
  2440 ;;		Unchanged: 0/0
  2441 ;; Data sizes:     COMMON   BANK0   BANK1   BANK3   BANK2
  2442 ;;      Params:         0       0       0       0       0
  2443 ;;      Locals:         0       0       4       0       0
  2444 ;;      Temps:          0       0       2       0       0
  2445 ;;      Totals:         0       0       6       0       0
  2446 ;;Total ram usage:        6 bytes
  2447 ;; Hardware stack levels used:    1
  2448 ;; Hardware stack levels required when called:    4
  2449 ;; This function calls:
  2450 ;;		_SerialAvailable
  2451 ;;		_SerialRead
  2452 ;;		_SerialWrite
  2453 ;;		_analogRead
  2454 ;;		_analogWrite
  2455 ;;		_cocienteEntero
  2456 ;;		_delay
  2457 ;;		_residuo
  2458 ;; This function is called by:
  2459 ;;		_main
  2460 ;; This function uses a non-reentrant model
  2461 ;;
  2462                           psect	text4,local,class=CODE,delta=2,merge=1,group=0
  2463                           	file	"application.c"
  2464                           	line	25
  2465                           global __ptext4
  2466                           __ptext4:	;psect for function _loop
  2467  0F2E                     psect	text4
  2468                           	file	"application.c"
  2469                           	line	25
  2470                           	global	__size_of_loop
  2471                           	__size_of_loop	equ	__end_of_loop-_loop
  2472  00D2                     	
  2473                           _loop:	
  2474  0F2E                     ;incstack = 0
  2475                           	opt	stack 3
  2476                           ; Regs used in _loop: [wreg-fsr0h+status,2+status,0+btemp+1+pclath+cstack]
  2477                           	line	27
  2478                           	
  2479                           l2518:	
  2480  0F2E                     ;application.c: 27:     if(SerialAvailable())
  2481                           	fcall	_SerialAvailable
  2482  0F2E  120A  158A  2141  120A  158A  	xorlw	0
  2483  0F33  3A00               	skipnz
  2484  0F34  1903               	goto	u2761
  2485  0F35  2F37               	goto	u2760
  2486  0F36  2F38               u2761:
  2487  0F37                     	goto	l2552
  2488  0F37  2FF3               u2760:
  2489  0F38                     	line	29
  2490                           	
  2491                           l2520:	
  2492  0F38                     ;application.c: 28:     {;application.c: 29:         for(int i=0;i<buffer;i++)
  2493                           	bsf	status, 5	;RP0=1, select bank1
  2494  0F38  1683               	bcf	status, 6	;RP1=0, select bank1
  2495  0F39  1303               	clrf	(loop@i)^080h
  2496  0F3A  01AF               	clrf	(loop@i+1)^080h
  2497  0F3B  01B0               	goto	l2526
  2498  0F3C  2F52               	
  2499                           l54:	
  2500  0F3D                     	line	31
  2501                           	
  2502                           l2522:	
  2503  0F3D                     ;application.c: 30:         {;application.c: 31:             vectorIn[i] = SerialRead();
                                 
  2504                           	fcall	_SerialRead
  2505  0F3D  120A  158A  2166  120A  158A  	bsf	status, 5	;RP0=1, select bank1
  2506  0F42  1683               	bcf	status, 6	;RP1=0, select bank1
  2507  0F43  1303               	movwf	(??_loop+0)^080h+0
  2508  0F44  00AD               	movf	(loop@i)^080h,w
  2509  0F45  082F               	addlw	low(_vectorIn|((0x0)<<8))&0ffh
  2510  0F46  3EB3               	movwf	fsr0
  2511  0F47  0084               	movf	(??_loop+0)^080h+0,w
  2512  0F48  082D               	bcf	status, 7	;select IRP bank1
  2513  0F49  1383               	movwf	indf
  2514  0F4A  0080               	line	32
  2515                           	
  2516                           l2524:	
  2517  0F4B                     ;application.c: 32:         }
  2518                           	movlw	01h
  2519  0F4B  3001               	addwf	(loop@i)^080h,f
  2520  0F4C  07AF               	skipnc
  2521  0F4D  1803               	incf	(loop@i+1)^080h,f
  2522  0F4E  0AB0               	movlw	0
  2523  0F4F  3000               	addwf	(loop@i+1)^080h,f
  2524  0F50  07B0               	goto	l2526
  2525  0F51  2F52               	
  2526                           l53:	
  2527  0F52                     	
  2528                           l2526:	
  2529  0F52                     	movf	(loop@i+1)^080h,w
  2530  0F52  0830               	xorlw	80h
  2531  0F53  3A80               	movwf	(??_loop+0)^080h+0
  2532  0F54  00AD               	movlw	80h
  2533  0F55  3080               	subwf	(??_loop+0)^080h+0,w
  2534  0F56  022D               	skipz
  2535  0F57  1D03               	goto	u2775
  2536  0F58  2F5B               	movf	(_buffer)^080h,w
  2537  0F59  0848               	subwf	(loop@i)^080h,w
  2538  0F5A  022F               u2775:
  2539  0F5B                     
  2540                           	skipc
  2541  0F5B  1C03               	goto	u2771
  2542  0F5C  2F5E               	goto	u2770
  2543  0F5D  2F5F               u2771:
  2544  0F5E                     	goto	l2522
  2545  0F5E  2F3D               u2770:
  2546  0F5F                     	goto	l2528
  2547  0F5F  2F60               	
  2548                           l55:	
  2549  0F60                     	line	33
  2550                           	
  2551                           l2528:	
  2552  0F60                     ;application.c: 33:         PWMLSB = vectorIn[1];
  2553                           	bsf	status, 5	;RP0=1, select bank1
  2554  0F60  1683               	bcf	status, 6	;RP1=0, select bank1
  2555  0F61  1303               	movf	0+(_vectorIn)^080h+01h,w
  2556  0F62  0834               	movwf	(??_loop+0)^080h+0
  2557  0F63  00AD               	movf	(??_loop+0)^080h+0,w
  2558  0F64  082D               	movwf	(_PWMLSB)^080h
  2559  0F65  00BC               	line	34
  2560                           ;application.c: 34:         PWMMSB = vectorIn[0];
  2561                           	movf	(_vectorIn)^080h,w
  2562  0F66  0833               	movwf	(??_loop+0)^080h+0
  2563  0F67  00AD               	movf	(??_loop+0)^080h+0,w
  2564  0F68  082D               	movwf	(_PWMMSB)^080h
  2565  0F69  00BD               	line	35
  2566                           ;application.c: 35:         PWM = PWMMSB;
  2567                           	movf	(_PWMMSB)^080h,w
  2568  0F6A  083D               	movwf	(??_loop+0)^080h+0
  2569  0F6B  00AD               	clrf	(??_loop+0)^080h+0+1
  2570  0F6C  01AE               	movf	0+(??_loop+0)^080h+0,w
  2571  0F6D  082D               	movwf	(_PWM)^080h
  2572  0F6E  00B6               	movf	1+(??_loop+0)^080h+0,w
  2573  0F6F  082E               	movwf	(_PWM+1)^080h
  2574  0F70  00B7               	line	36
  2575                           ;application.c: 36:         PWM = PWM << 8;
  2576                           	movf	(_PWM)^080h,w
  2577  0F71  0836               	movwf	(??_loop+0)^080h+0+1
  2578  0F72  00AE               	clrf	(??_loop+0)^080h+0
  2579  0F73  01AD               	movf	0+(??_loop+0)^080h+0,w
  2580  0F74  082D               	movwf	(_PWM)^080h
  2581  0F75  00B6               	movf	1+(??_loop+0)^080h+0,w
  2582  0F76  082E               	movwf	(_PWM+1)^080h
  2583  0F77  00B7               	line	37
  2584                           ;application.c: 37:         PWM += PWMLSB;
  2585                           	movf	(_PWMLSB)^080h,w
  2586  0F78  083C               	movwf	(??_loop+0)^080h+0
  2587  0F79  00AD               	clrf	(??_loop+0)^080h+0+1
  2588  0F7A  01AE               	movf	0+(??_loop+0)^080h+0,w
  2589  0F7B  082D               	addwf	(_PWM)^080h,f
  2590  0F7C  07B6               	skipnc
  2591  0F7D  1803               	incf	(_PWM+1)^080h,f
  2592  0F7E  0AB7               	movf	1+(??_loop+0)^080h+0,w
  2593  0F7F  082E               	addwf	(_PWM+1)^080h,f
  2594  0F80  07B7               	line	38
  2595                           	
  2596                           l2530:	
  2597  0F81                     ;application.c: 38:         analogWrite(1,PWM);
  2598                           	movf	(_PWM+1)^080h,w
  2599  0F81  0837               	movwf	(analogWrite@value+1)^080h
  2600  0F82  00AA               	movf	(_PWM)^080h,w
  2601  0F83  0836               	movwf	(analogWrite@value)^080h
  2602  0F84  00A9               	movlw	low(01h)
  2603  0F85  3001               	fcall	_analogWrite
  2604  0F86  120A  158A  2201  120A  158A  	line	39
  2605                           	
  2606                           l2532:	
  2607  0F8B                     ;application.c: 39:         ADC = analogRead(0);
  2608                           	movlw	low(0)
  2609  0F8B  3000               	fcall	_analogRead
  2610  0F8C  120A  158A  2340  120A  158A  	movf	(1+(?_analogRead)),w
  2611  0F91  0871               	bsf	status, 5	;RP0=1, select bank1
  2612  0F92  1683               	bcf	status, 6	;RP1=0, select bank1
  2613  0F93  1303               	movwf	(_ADC+1)^080h
  2614  0F94  00BB               	movf	(0+(?_analogRead)),w
  2615  0F95  0870               	movwf	(_ADC)^080h
  2616  0F96  00BA               	line	40
  2617                           	
  2618                           l2534:	
  2619  0F97                     ;application.c: 40:         ADCMSB = cocienteEntero(ADC,256);
  2620                           	movf	(_ADC+1)^080h,w
  2621  0F97  083B               	movwf	(cocienteEntero@numerator+1)
  2622  0F98  00F1               	movf	(_ADC)^080h,w
  2623  0F99  083A               	movwf	(cocienteEntero@numerator)
  2624  0F9A  00F0               	movlw	0
  2625  0F9B  3000               	movwf	(cocienteEntero@denominator)
  2626  0F9C  00F2               	movlw	01h
  2627  0F9D  3001               	movwf	((cocienteEntero@denominator))+1
  2628  0F9E  00F3               	fcall	_cocienteEntero
  2629  0F9F  120A  158A  21B6  120A  158A  	bsf	status, 5	;RP0=1, select bank1
  2630  0FA4  1683               	bcf	status, 6	;RP1=0, select bank1
  2631  0FA5  1303               	movwf	(??_loop+0)^080h+0
  2632  0FA6  00AD               	movf	(??_loop+0)^080h+0,w
  2633  0FA7  082D               	movwf	(_ADCMSB)^080h
  2634  0FA8  00BF               	line	41
  2635                           	
  2636                           l2536:	
  2637  0FA9                     ;application.c: 41:         ADCLSB = residuo(ADC,256);
  2638                           	movf	(_ADC+1)^080h,w
  2639  0FA9  083B               	movwf	(residuo@numerator+1)
  2640  0FAA  00F1               	movf	(_ADC)^080h,w
  2641  0FAB  083A               	movwf	(residuo@numerator)
  2642  0FAC  00F0               	movlw	0
  2643  0FAD  3000               	movwf	(residuo@denominator)
  2644  0FAE  00F2               	movlw	01h
  2645  0FAF  3001               	movwf	((residuo@denominator))+1
  2646  0FB0  00F3               	fcall	_residuo
  2647  0FB1  120A  158A  219D  120A  158A  	bsf	status, 5	;RP0=1, select bank1
  2648  0FB6  1683               	bcf	status, 6	;RP1=0, select bank1
  2649  0FB7  1303               	movwf	(??_loop+0)^080h+0
  2650  0FB8  00AD               	movf	(??_loop+0)^080h+0,w
  2651  0FB9  082D               	movwf	(_ADCLSB)^080h
  2652  0FBA  00BE               	line	42
  2653                           	
  2654                           l2538:	
  2655  0FBB                     ;application.c: 42:         vectorOut[0] = ADCMSB;
  2656                           	movf	(_ADCMSB)^080h,w
  2657  0FBB  083F               	movwf	(??_loop+0)^080h+0
  2658  0FBC  00AD               	movf	(??_loop+0)^080h+0,w
  2659  0FBD  082D               	movwf	(_vectorOut)^080h
  2660  0FBE  00B8               	line	43
  2661                           	
  2662                           l2540:	
  2663  0FBF                     ;application.c: 43:         vectorOut[1] = ADCLSB;
  2664                           	movf	(_ADCLSB)^080h,w
  2665  0FBF  083E               	movwf	(??_loop+0)^080h+0
  2666  0FC0  00AD               	movf	(??_loop+0)^080h+0,w
  2667  0FC1  082D               	movwf	0+(_vectorOut)^080h+01h
  2668  0FC2  00B9               	line	44
  2669                           	
  2670                           l2542:	
  2671  0FC3                     ;application.c: 44:         for(int i=0;i<buffer;i++)
  2672                           	clrf	(loop@i_90)^080h
  2673  0FC3  01B1               	clrf	(loop@i_90+1)^080h
  2674  0FC4  01B2               	goto	l2548
  2675  0FC5  2FDB               	
  2676                           l57:	
  2677  0FC6                     	line	46
  2678                           	
  2679                           l2544:	
  2680  0FC6                     ;application.c: 45:         {;application.c: 46:             SerialWrite(vectorOut[i]);

  2681                           	bsf	status, 5	;RP0=1, select bank1
  2682  0FC6  1683               	bcf	status, 6	;RP1=0, select bank1
  2683  0FC7  1303               	movf	(loop@i_90)^080h,w
  2684  0FC8  0831               	addlw	low(_vectorOut|((0x0)<<8))&0ffh
  2685  0FC9  3EB8               	movwf	fsr0
  2686  0FCA  0084               	bcf	status, 7	;select IRP bank1
  2687  0FCB  1383               	movf	indf,w
  2688  0FCC  0800               	fcall	_SerialWrite
  2689  0FCD  120A  118A  2005  120A  158A  	line	47
  2690                           	
  2691                           l2546:	
  2692  0FD2                     ;application.c: 47:         }
  2693                           	movlw	01h
  2694  0FD2  3001               	bsf	status, 5	;RP0=1, select bank1
  2695  0FD3  1683               	bcf	status, 6	;RP1=0, select bank1
  2696  0FD4  1303               	addwf	(loop@i_90)^080h,f
  2697  0FD5  07B1               	skipnc
  2698  0FD6  1803               	incf	(loop@i_90+1)^080h,f
  2699  0FD7  0AB2               	movlw	0
  2700  0FD8  3000               	addwf	(loop@i_90+1)^080h,f
  2701  0FD9  07B2               	goto	l2548
  2702  0FDA  2FDB               	
  2703                           l56:	
  2704  0FDB                     	
  2705                           l2548:	
  2706  0FDB                     	movf	(loop@i_90+1)^080h,w
  2707  0FDB  0832               	xorlw	80h
  2708  0FDC  3A80               	movwf	(??_loop+0)^080h+0
  2709  0FDD  00AD               	movlw	80h
  2710  0FDE  3080               	subwf	(??_loop+0)^080h+0,w
  2711  0FDF  022D               	skipz
  2712  0FE0  1D03               	goto	u2785
  2713  0FE1  2FE4               	movf	(_buffer)^080h,w
  2714  0FE2  0848               	subwf	(loop@i_90)^080h,w
  2715  0FE3  0231               u2785:
  2716  0FE4                     
  2717                           	skipc
  2718  0FE4  1C03               	goto	u2781
  2719  0FE5  2FE7               	goto	u2780
  2720  0FE6  2FE8               u2781:
  2721  0FE7                     	goto	l2544
  2722  0FE7  2FC6               u2780:
  2723  0FE8                     	goto	l2550
  2724  0FE8  2FE9               	
  2725                           l58:	
  2726  0FE9                     	line	48
  2727                           	
  2728                           l2550:	
  2729  0FE9                     ;application.c: 48:         delay(100);
  2730                           	movlw	064h
  2731  0FE9  3064               	movwf	(delay@milis)
  2732  0FEA  00F0               	movlw	0
  2733  0FEB  3000               	movwf	((delay@milis))+1
  2734  0FEC  00F1               	fcall	_delay
  2735  0FED  120A  158A  22A3  120A  158A  	line	49
  2736                           ;application.c: 49:     }
  2737                           	goto	l60
  2738  0FF2  2FFF               	line	50
  2739                           ;application.c: 50:     else
  2740                           	
  2741                           l52:	
  2742  0FF3                     	line	52
  2743                           	
  2744                           l2552:	
  2745  0FF3                     ;application.c: 51:     {;application.c: 52:         analogWrite(4,0);
  2746                           	movlw	0
  2747  0FF3  3000               	bsf	status, 5	;RP0=1, select bank1
  2748  0FF4  1683               	bcf	status, 6	;RP1=0, select bank1
  2749  0FF5  1303               	movwf	(analogWrite@value)^080h
  2750  0FF6  00A9               	movwf	(analogWrite@value+1)^080h
  2751  0FF7  00AA               	movlw	low(04h)
  2752  0FF8  3004               	fcall	_analogWrite
  2753  0FF9  120A  158A  2201  120A  158A  	goto	l60
  2754  0FFE  2FFF               	line	53
  2755                           ;application.c: 53:     }
  2756                           	
  2757                           l59:	
  2758  0FFF                     	line	54
  2759                           	
  2760                           l60:	
  2761  0FFF                     	return
  2762  0FFF  0008               	opt stack 0
  2763                           GLOBAL	__end_of_loop
  2764                           	__end_of_loop:
  2765  1000                     	signat	_loop,89
  2766                           	global	_residuo
  2767                           
  2768 ;; *************** function _residuo *****************
  2769 ;; Defined at:
  2770 ;;		line 56 in file "application.c"
  2771 ;; Parameters:    Size  Location     Type
  2772 ;;  numerator       2    0[COMMON] unsigned int 
  2773 ;;  denominator     2    2[COMMON] unsigned int 
  2774 ;; Auto vars:     Size  Location     Type
  2775 ;;  temp1           2    4[COMMON] unsigned int 
  2776 ;; Return value:  Size  Location     Type
  2777 ;;                  1    wreg      unsigned char 
  2778 ;; Registers used:
  2779 ;;		wreg
  2780 ;; Tracked objects:
  2781 ;;		On entry : 0/0
  2782 ;;		On exit  : 0/0
  2783 ;;		Unchanged: 0/0
  2784 ;; Data sizes:     COMMON   BANK0   BANK1   BANK3   BANK2
  2785 ;;      Params:         4       0       0       0       0
  2786 ;;      Locals:         2       0       0       0       0
  2787 ;;      Temps:          0       0       0       0       0
  2788 ;;      Totals:         6       0       0       0       0
  2789 ;;Total ram usage:        6 bytes
  2790 ;; Hardware stack levels used:    1
  2791 ;; This function calls:
  2792 ;;		Nothing
  2793 ;; This function is called by:
  2794 ;;		_loop
  2795 ;; This function uses a non-reentrant model
  2796 ;;
  2797                           psect	text5,local,class=CODE,delta=2,merge=1,group=0
  2798                           	line	56
  2799                           global __ptext5
  2800                           __ptext5:	;psect for function _residuo
  2801  099D                     psect	text5
  2802                           	file	"application.c"
  2803                           	line	56
  2804                           	global	__size_of_residuo
  2805                           	__size_of_residuo	equ	__end_of_residuo-_residuo
  2806  0019                     	
  2807                           _residuo:	
  2808  099D                     ;incstack = 0
  2809                           	opt	stack 6
  2810                           ; Regs used in _residuo: [wreg]
  2811                           	line	58
  2812                           	
  2813                           l2476:	
  2814  099D                     ;application.c: 56: char residuo(unsigned int numerator, unsigned int denominator);appli
                                 cation.c: 57: {;application.c: 58:  unsigned int temp1 = numerator;
  2815                           	movf	(residuo@numerator+1),w
  2816  099D  0871               	movwf	(residuo@temp1+1)
  2817  099E  00F5               	movf	(residuo@numerator),w
  2818  099F  0870               	movwf	(residuo@temp1)
  2819  09A0  00F4               	line	59
  2820                           ;application.c: 59:  while(temp1 > denominator)
  2821                           	goto	l63
  2822  09A1  29A8               	
  2823                           l64:	
  2824  09A2                     	line	61
  2825                           	
  2826                           l2478:	
  2827  09A2                     ;application.c: 60:  {;application.c: 61:   temp1 -= denominator;
  2828                           	movf	(residuo@denominator),w
  2829  09A2  0872               	subwf	(residuo@temp1),f
  2830  09A3  02F4               	movf	(residuo@denominator+1),w
  2831  09A4  0873               	skipc
  2832  09A5  1C03               	decf	(residuo@temp1+1),f
  2833  09A6  03F5               	subwf	(residuo@temp1+1),f
  2834  09A7  02F5               	line	62
  2835                           ;application.c: 62:  }
  2836                           	
  2837                           l63:	
  2838  09A8                     	line	59
  2839                           ;application.c: 59:  while(temp1 > denominator)
  2840                           	movf	(residuo@temp1+1),w
  2841  09A8  0875               	subwf	(residuo@denominator+1),w
  2842  09A9  0273               	skipz
  2843  09AA  1D03               	goto	u2665
  2844  09AB  29AE               	movf	(residuo@temp1),w
  2845  09AC  0874               	subwf	(residuo@denominator),w
  2846  09AD  0272               u2665:
  2847  09AE                     	skipc
  2848  09AE  1C03               	goto	u2661
  2849  09AF  29B1               	goto	u2660
  2850  09B0  29B2               u2661:
  2851  09B1                     	goto	l2478
  2852  09B1  29A2               u2660:
  2853  09B2                     	goto	l2480
  2854  09B2  29B3               	
  2855                           l65:	
  2856  09B3                     	line	63
  2857                           	
  2858                           l2480:	
  2859  09B3                     ;application.c: 63:  return temp1;
  2860                           	movf	(residuo@temp1),w
  2861  09B3  0874               	goto	l66
  2862  09B4  29B5               	
  2863                           l2482:	
  2864  09B5                     	line	64
  2865                           	
  2866                           l66:	
  2867  09B5                     	return
  2868  09B5  0008               	opt stack 0
  2869                           GLOBAL	__end_of_residuo
  2870                           	__end_of_residuo:
  2871  09B6                     	signat	_residuo,8313
  2872                           	global	_delay
  2873                           
  2874 ;; *************** function _delay *****************
  2875 ;; Defined at:
  2876 ;;		line 360 in file "procedures.c"
  2877 ;; Parameters:    Size  Location     Type
  2878 ;;  milis           2    0[COMMON] const int 
  2879 ;; Auto vars:     Size  Location     Type
  2880 ;;  i               2    5[COMMON] int 
  2881 ;;  j               2    3[COMMON] int 
  2882 ;; Return value:  Size  Location     Type
  2883 ;;                  1    wreg      void 
  2884 ;; Registers used:
  2885 ;;		wreg, status,2, btemp+1
  2886 ;; Tracked objects:
  2887 ;;		On entry : 0/0
  2888 ;;		On exit  : 0/0
  2889 ;;		Unchanged: 0/0
  2890 ;; Data sizes:     COMMON   BANK0   BANK1   BANK3   BANK2
  2891 ;;      Params:         2       0       0       0       0
  2892 ;;      Locals:         4       0       0       0       0
  2893 ;;      Temps:          1       0       0       0       0
  2894 ;;      Totals:         7       0       0       0       0
  2895 ;;Total ram usage:        7 bytes
  2896 ;; Hardware stack levels used:    1
  2897 ;; This function calls:
  2898 ;;		Nothing
  2899 ;; This function is called by:
  2900 ;;		_loop
  2901 ;; This function uses a non-reentrant model
  2902 ;;
  2903                           psect	text6,local,class=CODE,delta=2,merge=1,group=0
  2904                           	file	"procedures.c"
  2905                           	line	360
  2906                           global __ptext6
  2907                           __ptext6:	;psect for function _delay
  2908  0AA3                     psect	text6
  2909                           	file	"procedures.c"
  2910                           	line	360
  2911                           	global	__size_of_delay
  2912                           	__size_of_delay	equ	__end_of_delay-_delay
  2913  004E                     	
  2914                           _delay:	
  2915  0AA3                     ;incstack = 0
  2916                           	opt	stack 6
  2917                           ; Regs used in _delay: [wreg+status,2+btemp+1]
  2918                           	line	362
  2919                           	
  2920                           l2488:	
  2921  0AA3                     ;procedures.c: 360: void delay(const int milis);procedures.c: 361: {;procedures.c: 362: 
                                     for(int j=0;j<milis;j++)
  2922                           	clrf	(delay@j)
  2923  0AA3  01F3               	clrf	(delay@j+1)
  2924  0AA4  01F4               	
  2925                           l2490:	
  2926  0AA5                     	movf	(delay@j+1),w
  2927  0AA5  0874               	xorlw	80h
  2928  0AA6  3A80               	movwf	(??_delay+0)+0
  2929  0AA7  00F2               	movf	(delay@milis+1),w
  2930  0AA8  0871               	xorlw	80h
  2931  0AA9  3A80               	subwf	(??_delay+0)+0,w
  2932  0AAA  0272               	skipz
  2933  0AAB  1D03               	goto	u2685
  2934  0AAC  2AAF               	movf	(delay@milis),w
  2935  0AAD  0870               	subwf	(delay@j),w
  2936  0AAE  0273               u2685:
  2937  0AAF                     
  2938                           	skipc
  2939  0AAF  1C03               	goto	u2681
  2940  0AB0  2AB2               	goto	u2680
  2941  0AB1  2AB3               u2681:
  2942  0AB2                     	goto	l2494
  2943  0AB2  2AB5               u2680:
  2944  0AB3                     	goto	l316
  2945  0AB3  2AF0               	
  2946                           l2492:	
  2947  0AB4                     	goto	l316
  2948  0AB4  2AF0               	
  2949                           l312:	
  2950  0AB5                     	line	365
  2951                           	
  2952                           l2494:	
  2953  0AB5                     ;procedures.c: 363:     {;procedures.c: 365:         for(int i=0;i<400;i++)
  2954                           	clrf	(delay@i)
  2955  0AB5  01F5               	clrf	(delay@i+1)
  2956  0AB6  01F6               	
  2957                           l2496:	
  2958  0AB7                     	movf	(delay@i+1),w
  2959  0AB7  0876               	xorlw	80h
  2960  0AB8  3A80               	movwf	btemp+1
  2961  0AB9  00FF               	movlw	(01h)^80h
  2962  0ABA  3081               	subwf	btemp+1,w
  2963  0ABB  027F               	skipz
  2964  0ABC  1D03               	goto	u2695
  2965  0ABD  2AC0               	movlw	090h
  2966  0ABE  3090               	subwf	(delay@i),w
  2967  0ABF  0275               u2695:
  2968  0AC0                     
  2969                           	skipc
  2970  0AC0  1C03               	goto	u2691
  2971  0AC1  2AC3               	goto	u2690
  2972  0AC2  2AC4               u2691:
  2973  0AC3                     	goto	l314
  2974  0AC3  2AC6               u2690:
  2975  0AC4                     	goto	l2504
  2976  0AC4  2ADB               	
  2977                           l2498:	
  2978  0AC5                     	goto	l2504
  2979  0AC5  2ADB               	
  2980                           l314:	
  2981  0AC6                     	line	367
  2982                           # 367 "procedures.c"
  2983                           NOP ;# 
  2984  0AC6  0000               psect	text6
  2985                           	line	368
  2986                           	
  2987                           l2500:	
  2988  0AC7                     ;procedures.c: 368:         }
  2989                           	movlw	01h
  2990  0AC7  3001               	addwf	(delay@i),f
  2991  0AC8  07F5               	skipnc
  2992  0AC9  1803               	incf	(delay@i+1),f
  2993  0ACA  0AF6               	movlw	0
  2994  0ACB  3000               	addwf	(delay@i+1),f
  2995  0ACC  07F6               	
  2996                           l2502:	
  2997  0ACD                     	movf	(delay@i+1),w
  2998  0ACD  0876               	xorlw	80h
  2999  0ACE  3A80               	movwf	btemp+1
  3000  0ACF  00FF               	movlw	(01h)^80h
  3001  0AD0  3081               	subwf	btemp+1,w
  3002  0AD1  027F               	skipz
  3003  0AD2  1D03               	goto	u2705
  3004  0AD3  2AD6               	movlw	090h
  3005  0AD4  3090               	subwf	(delay@i),w
  3006  0AD5  0275               u2705:
  3007  0AD6                     
  3008                           	skipc
  3009  0AD6  1C03               	goto	u2701
  3010  0AD7  2AD9               	goto	u2700
  3011  0AD8  2ADA               u2701:
  3012  0AD9                     	goto	l314
  3013  0AD9  2AC6               u2700:
  3014  0ADA                     	goto	l2504
  3015  0ADA  2ADB               	
  3016                           l315:	
  3017  0ADB                     	line	369
  3018                           	
  3019                           l2504:	
  3020  0ADB                     ;procedures.c: 369:     }
  3021                           	movlw	01h
  3022  0ADB  3001               	addwf	(delay@j),f
  3023  0ADC  07F3               	skipnc
  3024  0ADD  1803               	incf	(delay@j+1),f
  3025  0ADE  0AF4               	movlw	0
  3026  0ADF  3000               	addwf	(delay@j+1),f
  3027  0AE0  07F4               	movf	(delay@j+1),w
  3028  0AE1  0874               	xorlw	80h
  3029  0AE2  3A80               	movwf	(??_delay+0)+0
  3030  0AE3  00F2               	movf	(delay@milis+1),w
  3031  0AE4  0871               	xorlw	80h
  3032  0AE5  3A80               	subwf	(??_delay+0)+0,w
  3033  0AE6  0272               	skipz
  3034  0AE7  1D03               	goto	u2715
  3035  0AE8  2AEB               	movf	(delay@milis),w
  3036  0AE9  0870               	subwf	(delay@j),w
  3037  0AEA  0273               u2715:
  3038  0AEB                     
  3039                           	skipc
  3040  0AEB  1C03               	goto	u2711
  3041  0AEC  2AEE               	goto	u2710
  3042  0AED  2AEF               u2711:
  3043  0AEE                     	goto	l2494
  3044  0AEE  2AB5               u2710:
  3045  0AEF                     	goto	l316
  3046  0AEF  2AF0               	
  3047                           l313:	
  3048  0AF0                     	line	370
  3049                           	
  3050                           l316:	
  3051  0AF0                     	return
  3052  0AF0  0008               	opt stack 0
  3053                           GLOBAL	__end_of_delay
  3054                           	__end_of_delay:
  3055  0AF1                     	signat	_delay,4217
  3056                           	global	_cocienteEntero
  3057                           
  3058 ;; *************** function _cocienteEntero *****************
  3059 ;; Defined at:
  3060 ;;		line 66 in file "application.c"
  3061 ;; Parameters:    Size  Location     Type
  3062 ;;  numerator       2    0[COMMON] unsigned int 
  3063 ;;  denominator     2    2[COMMON] unsigned int 
  3064 ;; Auto vars:     Size  Location     Type
  3065 ;;  temp1           2    6[COMMON] unsigned int 
  3066 ;;  cont            2    4[COMMON] unsigned int 
  3067 ;; Return value:  Size  Location     Type
  3068 ;;                  1    wreg      unsigned char 
  3069 ;; Registers used:
  3070 ;;		wreg, status,2
  3071 ;; Tracked objects:
  3072 ;;		On entry : 0/0
  3073 ;;		On exit  : 0/0
  3074 ;;		Unchanged: 0/0
  3075 ;; Data sizes:     COMMON   BANK0   BANK1   BANK3   BANK2
  3076 ;;      Params:         4       0       0       0       0
  3077 ;;      Locals:         4       0       0       0       0
  3078 ;;      Temps:          0       0       0       0       0
  3079 ;;      Totals:         8       0       0       0       0
  3080 ;;Total ram usage:        8 bytes
  3081 ;; Hardware stack levels used:    1
  3082 ;; This function calls:
  3083 ;;		Nothing
  3084 ;; This function is called by:
  3085 ;;		_loop
  3086 ;; This function uses a non-reentrant model
  3087 ;;
  3088                           psect	text7,local,class=CODE,delta=2,merge=1,group=0
  3089                           	file	"application.c"
  3090                           	line	66
  3091                           global __ptext7
  3092                           __ptext7:	;psect for function _cocienteEntero
  3093  09B6                     psect	text7
  3094                           	file	"application.c"
  3095                           	line	66
  3096                           	global	__size_of_cocienteEntero
  3097                           	__size_of_cocienteEntero	equ	__end_of_cocienteEntero-_cocienteEntero
  3098  0021                     	
  3099                           _cocienteEntero:	
  3100  09B6                     ;incstack = 0
  3101                           	opt	stack 6
  3102                           ; Regs used in _cocienteEntero: [wreg+status,2]
  3103                           	line	68
  3104                           	
  3105                           l2466:	
  3106  09B6                     ;application.c: 66: char cocienteEntero(unsigned int numerator, unsigned int denominator
                                 );application.c: 67: {;application.c: 68:  unsigned int cont = 0;
  3107                           	clrf	(cocienteEntero@cont)
  3108  09B6  01F4               	clrf	(cocienteEntero@cont+1)
  3109  09B7  01F5               	line	69
  3110                           	
  3111                           l2468:	
  3112  09B8                     ;application.c: 69:  unsigned int temp1 = numerator;
  3113                           	movf	(cocienteEntero@numerator+1),w
  3114  09B8  0871               	movwf	(cocienteEntero@temp1+1)
  3115  09B9  00F7               	movf	(cocienteEntero@numerator),w
  3116  09BA  0870               	movwf	(cocienteEntero@temp1)
  3117  09BB  00F6               	line	70
  3118                           ;application.c: 70:  while (temp1 > denominator)
  3119                           	goto	l69
  3120  09BC  29C9               	
  3121                           l70:	
  3122  09BD                     	line	72
  3123                           	
  3124                           l2470:	
  3125  09BD                     ;application.c: 71:  {;application.c: 72:   temp1 -= denominator;
  3126                           	movf	(cocienteEntero@denominator),w
  3127  09BD  0872               	subwf	(cocienteEntero@temp1),f
  3128  09BE  02F6               	movf	(cocienteEntero@denominator+1),w
  3129  09BF  0873               	skipc
  3130  09C0  1C03               	decf	(cocienteEntero@temp1+1),f
  3131  09C1  03F7               	subwf	(cocienteEntero@temp1+1),f
  3132  09C2  02F7               	line	73
  3133                           ;application.c: 73:   cont++;
  3134                           	movlw	01h
  3135  09C3  3001               	addwf	(cocienteEntero@cont),f
  3136  09C4  07F4               	skipnc
  3137  09C5  1803               	incf	(cocienteEntero@cont+1),f
  3138  09C6  0AF5               	movlw	0
  3139  09C7  3000               	addwf	(cocienteEntero@cont+1),f
  3140  09C8  07F5               	line	74
  3141                           ;application.c: 74:  }
  3142                           	
  3143                           l69:	
  3144  09C9                     	line	70
  3145                           ;application.c: 70:  while (temp1 > denominator)
  3146                           	movf	(cocienteEntero@temp1+1),w
  3147  09C9  0877               	subwf	(cocienteEntero@denominator+1),w
  3148  09CA  0273               	skipz
  3149  09CB  1D03               	goto	u2655
  3150  09CC  29CF               	movf	(cocienteEntero@temp1),w
  3151  09CD  0876               	subwf	(cocienteEntero@denominator),w
  3152  09CE  0272               u2655:
  3153  09CF                     	skipc
  3154  09CF  1C03               	goto	u2651
  3155  09D0  29D2               	goto	u2650
  3156  09D1  29D3               u2651:
  3157  09D2                     	goto	l2470
  3158  09D2  29BD               u2650:
  3159  09D3                     	goto	l2472
  3160  09D3  29D4               	
  3161                           l71:	
  3162  09D4                     	line	75
  3163                           	
  3164                           l2472:	
  3165  09D4                     ;application.c: 75:  return cont;
  3166                           	movf	(cocienteEntero@cont),w
  3167  09D4  0874               	goto	l72
  3168  09D5  29D6               	
  3169                           l2474:	
  3170  09D6                     	line	76
  3171                           	
  3172                           l72:	
  3173  09D6                     	return
  3174  09D6  0008               	opt stack 0
  3175                           GLOBAL	__end_of_cocienteEntero
  3176                           	__end_of_cocienteEntero:
  3177  09D7                     	signat	_cocienteEntero,8313
  3178                           	global	_analogWrite
  3179                           
  3180 ;; *************** function _analogWrite *****************
  3181 ;; Defined at:
  3182 ;;		line 325 in file "procedures.c"
  3183 ;; Parameters:    Size  Location     Type
  3184 ;;  pin             1    wreg     unsigned char 
  3185 ;;  value           2    9[BANK1 ] unsigned int 
  3186 ;; Auto vars:     Size  Location     Type
  3187 ;;  pin             1   13[COMMON] unsigned char 
  3188 ;; Return value:  Size  Location     Type
  3189 ;;                  1    wreg      void 
  3190 ;; Registers used:
  3191 ;;		wreg, fsr0l, fsr0h, status,2, status,0, btemp+1, pclath, cstack
  3192 ;; Tracked objects:
  3193 ;;		On entry : 0/0
  3194 ;;		On exit  : 0/0
  3195 ;;		Unchanged: 0/0
  3196 ;; Data sizes:     COMMON   BANK0   BANK1   BANK3   BANK2
  3197 ;;      Params:         0       0       2       0       0
  3198 ;;      Locals:         1       0       0       0       0
  3199 ;;      Temps:          0       0       2       0       0
  3200 ;;      Totals:         1       0       4       0       0
  3201 ;;Total ram usage:        5 bytes
  3202 ;; Hardware stack levels used:    1
  3203 ;; Hardware stack levels required when called:    3
  3204 ;; This function calls:
  3205 ;;		_PWM1_Duty
  3206 ;;		_PWM2_Duty
  3207 ;; This function is called by:
  3208 ;;		_loop
  3209 ;; This function uses a non-reentrant model
  3210 ;;
  3211                           psect	text8,local,class=CODE,delta=2,merge=1,group=0
  3212                           	file	"procedures.c"
  3213                           	line	325
  3214                           global __ptext8
  3215                           __ptext8:	;psect for function _analogWrite
  3216  0A01                     psect	text8
  3217                           	file	"procedures.c"
  3218                           	line	325
  3219                           	global	__size_of_analogWrite
  3220                           	__size_of_analogWrite	equ	__end_of_analogWrite-_analogWrite
  3221  002E                     	
  3222                           _analogWrite:	
  3223  0A01                     ;incstack = 0
  3224                           	opt	stack 3
  3225                           ; Regs used in _analogWrite: [wreg-fsr0h+status,2+status,0+btemp+1+pclath+cstack]
  3226                           ;analogWrite@pin stored from wreg
  3227                           	movwf	(analogWrite@pin)
  3228  0A01  00FD               	line	327
  3229                           	
  3230                           l2402:	
  3231  0A02                     ;procedures.c: 325: void analogWrite(char pin, unsigned int value);procedures.c: 326: {;
                                 procedures.c: 327:     switch(pin)
  3232                           	goto	l2410
  3233  0A02  2A1C               	line	329
  3234                           ;procedures.c: 328:     {;procedures.c: 329:         case 1:
  3235                           	
  3236                           l301:	
  3237  0A03                     	line	330
  3238                           	
  3239                           l2404:	
  3240  0A03                     ;procedures.c: 330:             PWM2_Duty(value);
  3241                           	bsf	status, 5	;RP0=1, select bank1
  3242  0A03  1683               	bcf	status, 6	;RP1=0, select bank1
  3243  0A04  1303               	movf	(analogWrite@value+1)^080h,w
  3244  0A05  082A               	movwf	(PWM2_Duty@duty+1)^080h
  3245  0A06  00A6               	movf	(analogWrite@value)^080h,w
  3246  0A07  0829               	movwf	(PWM2_Duty@duty)^080h
  3247  0A08  00A5               	fcall	_PWM2_Duty
  3248  0A09  120A  158A  245D  120A  158A  	line	331
  3249                           ;procedures.c: 331:             break;
  3250                           	goto	l304
  3251  0A0E  2A2E               	line	332
  3252                           ;procedures.c: 332:         case 2:
  3253                           	
  3254                           l303:	
  3255  0A0F                     	line	333
  3256                           	
  3257                           l2406:	
  3258  0A0F                     ;procedures.c: 333:             PWM1_Duty(value);
  3259                           	bsf	status, 5	;RP0=1, select bank1
  3260  0A0F  1683               	bcf	status, 6	;RP1=0, select bank1
  3261  0A10  1303               	movf	(analogWrite@value+1)^080h,w
  3262  0A11  082A               	movwf	(PWM1_Duty@duty+1)^080h
  3263  0A12  00A6               	movf	(analogWrite@value)^080h,w
  3264  0A13  0829               	movwf	(PWM1_Duty@duty)^080h
  3265  0A14  00A5               	fcall	_PWM1_Duty
  3266  0A15  120A  158A  23BE  120A  158A  	line	334
  3267                           ;procedures.c: 334:             break;
  3268                           	goto	l304
  3269  0A1A  2A2E               	line	335
  3270                           	
  3271                           l2408:	
  3272  0A1B                     ;procedures.c: 335:     }
  3273                           	goto	l304
  3274  0A1B  2A2E               	
  3275                           l300:	
  3276  0A1C                     	
  3277                           l2410:	
  3278  0A1C                     	movf	(analogWrite@pin),w
  3279  0A1C  087D               	bsf	status, 5	;RP0=1, select bank1
  3280  0A1D  1683               	bcf	status, 6	;RP1=0, select bank1
  3281  0A1E  1303               	movwf	(??_analogWrite+0)^080h+0
  3282  0A1F  00AB               	clrf	(??_analogWrite+0)^080h+0+1
  3283  0A20  01AC               	; Switch on 2 bytes has been partitioned into a top level switch of size 1, and 1 sub-s
                                 witches
  3284                           ; Switch size 1, requested type "space"
  3285                           ; Number of cases is 1, Range of values is 0 to 0
  3286                           ; switch strategies available:
  3287                           ; Name         Instructions Cycles
  3288                           ; simple_byte            4     3 (average)
  3289                           ; direct_byte           11     8 (fixed)
  3290                           ; jumptable            260     6 (fixed)
  3291                           ;	Chosen strategy is simple_byte
  3292                           
  3293                           	movf 1+(??_analogWrite+0)^080h+0,w
  3294  0A21  082C               	opt asmopt_push
  3295                           	opt asmopt_off
  3296                           	xorlw	0^0	; case 0
  3297  0A22  3A00               	skipnz
  3298  0A23  1903               	goto	l2652
  3299  0A24  2A26               	goto	l304
  3300  0A25  2A2E               	opt asmopt_pop
  3301                           	
  3302                           l2652:	
  3303  0A26                     ; Switch size 1, requested type "space"
  3304                           ; Number of cases is 2, Range of values is 1 to 2
  3305                           ; switch strategies available:
  3306                           ; Name         Instructions Cycles
  3307                           ; simple_byte            7     4 (average)
  3308                           ; direct_byte           17    11 (fixed)
  3309                           ; jumptable            263     9 (fixed)
  3310                           ;	Chosen strategy is simple_byte
  3311                           
  3312                           	movf 0+(??_analogWrite+0)^080h+0,w
  3313  0A26  082B               	opt asmopt_push
  3314                           	opt asmopt_off
  3315                           	xorlw	1^0	; case 1
  3316  0A27  3A01               	skipnz
  3317  0A28  1903               	goto	l2404
  3318  0A29  2A03               	xorlw	2^1	; case 2
  3319  0A2A  3A03               	skipnz
  3320  0A2B  1903               	goto	l2406
  3321  0A2C  2A0F               	goto	l304
  3322  0A2D  2A2E               	opt asmopt_pop
  3323                           
  3324                           	
  3325                           l302:	
  3326  0A2E                     	line	336
  3327                           	
  3328                           l304:	
  3329  0A2E                     	return
  3330  0A2E  0008               	opt stack 0
  3331                           GLOBAL	__end_of_analogWrite
  3332                           	__end_of_analogWrite:
  3333  0A2F                     	signat	_analogWrite,8313
  3334                           	global	_PWM2_Duty
  3335                           
  3336 ;; *************** function _PWM2_Duty *****************
  3337 ;; Defined at:
  3338 ;;		line 429 in file "procedures.c"
  3339 ;; Parameters:    Size  Location     Type
  3340 ;;  duty            2    5[BANK1 ] unsigned int 
  3341 ;; Auto vars:     Size  Location     Type
  3342 ;;		None
  3343 ;; Return value:  Size  Location     Type
  3344 ;;                  1    wreg      void 
  3345 ;; Registers used:
  3346 ;;		wreg, status,2, status,0, btemp+1, pclath, cstack
  3347 ;; Tracked objects:
  3348 ;;		On entry : 0/0
  3349 ;;		On exit  : 0/0
  3350 ;;		Unchanged: 0/0
  3351 ;; Data sizes:     COMMON   BANK0   BANK1   BANK3   BANK2
  3352 ;;      Params:         0       0       2       0       0
  3353 ;;      Locals:         0       0       0       0       0
  3354 ;;      Temps:          0       0       2       0       0
  3355 ;;      Totals:         0       0       4       0       0
  3356 ;;Total ram usage:        4 bytes
  3357 ;; Hardware stack levels used:    1
  3358 ;; Hardware stack levels required when called:    2
  3359 ;; This function calls:
  3360 ;;		_PWM_Max_Duty
  3361 ;;		___fldiv
  3362 ;;		___flmul
  3363 ;;		___fltol
  3364 ;;		___xxtofl
  3365 ;; This function is called by:
  3366 ;;		_analogWrite
  3367 ;; This function uses a non-reentrant model
  3368 ;;
  3369                           psect	text9,local,class=CODE,delta=2,merge=1,group=0
  3370                           	line	429
  3371                           global __ptext9
  3372                           __ptext9:	;psect for function _PWM2_Duty
  3373  0C5D                     psect	text9
  3374                           	file	"procedures.c"
  3375                           	line	429
  3376                           	global	__size_of_PWM2_Duty
  3377                           	__size_of_PWM2_Duty	equ	__end_of_PWM2_Duty-_PWM2_Duty
  3378  009F                     	
  3379                           _PWM2_Duty:	
  3380  0C5D                     ;incstack = 0
  3381                           	opt	stack 3
  3382                           ; Regs used in _PWM2_Duty: [wreg+status,2+status,0+btemp+1+pclath+cstack]
  3383                           	line	431
  3384                           	
  3385                           l2288:	
  3386  0C5D                     ;procedures.c: 429: void PWM2_Duty(unsigned int duty);procedures.c: 430: {;procedures.c:
                                  431:   if(duty<1024)
  3387                           	movlw	04h
  3388  0C5D  3004               	bsf	status, 5	;RP0=1, select bank1
  3389  0C5E  1683               	bcf	status, 6	;RP1=0, select bank1
  3390  0C5F  1303               	subwf	(PWM2_Duty@duty+1)^080h,w
  3391  0C60  0226               	movlw	0
  3392  0C61  3000               	skipnz
  3393  0C62  1903               	subwf	(PWM2_Duty@duty)^080h,w
  3394  0C63  0225               	skipnc
  3395  0C64  1803               	goto	u2451
  3396  0C65  2C67               	goto	u2450
  3397  0C66  2C68               u2451:
  3398  0C67                     	goto	l363
  3399  0C67  2CFB               u2450:
  3400  0C68                     	line	433
  3401                           	
  3402                           l2290:	
  3403  0C68                     ;procedures.c: 432:   {;procedures.c: 433:     duty = ((float)duty/1023)*PWM_Max_Duty();
                                 
  3404                           	movf	(PWM2_Duty@duty)^080h,w
  3405  0C68  0825               	bcf	status, 5	;RP0=0, select bank0
  3406  0C69  1283               	bcf	status, 6	;RP1=0, select bank0
  3407  0C6A  1303               	movwf	(___xxtofl@val)
  3408  0C6B  00A8               	bsf	status, 5	;RP0=1, select bank1
  3409  0C6C  1683               	bcf	status, 6	;RP1=0, select bank1
  3410  0C6D  1303               	movf	(PWM2_Duty@duty+1)^080h,w
  3411  0C6E  0826               	bcf	status, 5	;RP0=0, select bank0
  3412  0C6F  1283               	bcf	status, 6	;RP1=0, select bank0
  3413  0C70  1303               	movwf	((___xxtofl@val))+1
  3414  0C71  00A9               	clrf	2+((___xxtofl@val))
  3415  0C72  01AA               	clrf	3+((___xxtofl@val))
  3416  0C73  01AB               	movlw	low(0)
  3417  0C74  3000               	fcall	___xxtofl
  3418  0C75  120A  158A  25A2  120A  158A  	bcf	status, 5	;RP0=0, select bank0
  3419  0C7A  1283               	bcf	status, 6	;RP1=0, select bank0
  3420  0C7B  1303               	movf	(3+(?___xxtofl)),w
  3421  0C7C  082B               	movwf	(___fldiv@b+3)
  3422  0C7D  00BD               	movf	(2+(?___xxtofl)),w
  3423  0C7E  082A               	movwf	(___fldiv@b+2)
  3424  0C7F  00BC               	movf	(1+(?___xxtofl)),w
  3425  0C80  0829               	movwf	(___fldiv@b+1)
  3426  0C81  00BB               	movf	(0+(?___xxtofl)),w
  3427  0C82  0828               	movwf	(___fldiv@b)
  3428  0C83  00BA               
  3429                           	movlw	0x44
  3430  0C84  3044               	movwf	(___fldiv@a+3)
  3431  0C85  00B9               	movlw	0x7f
  3432  0C86  307F               	movwf	(___fldiv@a+2)
  3433  0C87  00B8               	movlw	0xc0
  3434  0C88  30C0               	movwf	(___fldiv@a+1)
  3435  0C89  00B7               	movlw	0x0
  3436  0C8A  3000               	movwf	(___fldiv@a)
  3437  0C8B  00B6               
  3438                           	fcall	___fldiv
  3439  0C8C  120A  118A  2267  120A  158A  	bcf	status, 5	;RP0=0, select bank0
  3440  0C91  1283               	bcf	status, 6	;RP1=0, select bank0
  3441  0C92  1303               	movf	(3+(?___fldiv)),w
  3442  0C93  0839               	movwf	(___flmul@a+3)
  3443  0C94  00D7               	movf	(2+(?___fldiv)),w
  3444  0C95  0838               	movwf	(___flmul@a+2)
  3445  0C96  00D6               	movf	(1+(?___fldiv)),w
  3446  0C97  0837               	movwf	(___flmul@a+1)
  3447  0C98  00D5               	movf	(0+(?___fldiv)),w
  3448  0C99  0836               	movwf	(___flmul@a)
  3449  0C9A  00D4               
  3450                           	fcall	_PWM_Max_Duty
  3451  0C9B  120A  158A  222F  120A  158A  	bcf	status, 5	;RP0=0, select bank0
  3452  0CA0  1283               	bcf	status, 6	;RP1=0, select bank0
  3453  0CA1  1303               	movf	(0+(?_PWM_Max_Duty)),w
  3454  0CA2  0826               	movwf	(___xxtofl@val)
  3455  0CA3  00A8               	movf	(1+(?_PWM_Max_Duty)),w
  3456  0CA4  0827               	movwf	(___xxtofl@val+1)
  3457  0CA5  00A9               	movlw	0
  3458  0CA6  3000               	btfsc	(___xxtofl@val+1),7
  3459  0CA7  1BA9               	movlw	255
  3460  0CA8  30FF               	movwf	(___xxtofl@val+2)
  3461  0CA9  00AA               	movwf	(___xxtofl@val+3)
  3462  0CAA  00AB               	movlw	low(01h)
  3463  0CAB  3001               	fcall	___xxtofl
  3464  0CAC  120A  158A  25A2  120A  158A  	bcf	status, 5	;RP0=0, select bank0
  3465  0CB1  1283               	bcf	status, 6	;RP1=0, select bank0
  3466  0CB2  1303               	movf	(3+(?___xxtofl)),w
  3467  0CB3  082B               	movwf	(___flmul@b+3)
  3468  0CB4  00D3               	movf	(2+(?___xxtofl)),w
  3469  0CB5  082A               	movwf	(___flmul@b+2)
  3470  0CB6  00D2               	movf	(1+(?___xxtofl)),w
  3471  0CB7  0829               	movwf	(___flmul@b+1)
  3472  0CB8  00D1               	movf	(0+(?___xxtofl)),w
  3473  0CB9  0828               	movwf	(___flmul@b)
  3474  0CBA  00D0               
  3475                           	fcall	___flmul
  3476  0CBB  120A  118A  2470  120A  158A  	bcf	status, 5	;RP0=0, select bank0
  3477  0CC0  1283               	bcf	status, 6	;RP1=0, select bank0
  3478  0CC1  1303               	movf	(3+(?___flmul)),w
  3479  0CC2  0853               	movwf	(___fltol@f1+3)
  3480  0CC3  00ED               	movf	(2+(?___flmul)),w
  3481  0CC4  0852               	movwf	(___fltol@f1+2)
  3482  0CC5  00EC               	movf	(1+(?___flmul)),w
  3483  0CC6  0851               	movwf	(___fltol@f1+1)
  3484  0CC7  00EB               	movf	(0+(?___flmul)),w
  3485  0CC8  0850               	movwf	(___fltol@f1)
  3486  0CC9  00EA               
  3487                           	fcall	___fltol
  3488  0CCA  120A  158A  2666  120A  158A  	bcf	status, 5	;RP0=0, select bank0
  3489  0CCF  1283               	bcf	status, 6	;RP1=0, select bank0
  3490  0CD0  1303               	movf	(1+(?___fltol)),w
  3491  0CD1  086B               	bsf	status, 5	;RP0=1, select bank1
  3492  0CD2  1683               	bcf	status, 6	;RP1=0, select bank1
  3493  0CD3  1303               	movwf	(PWM2_Duty@duty+1)^080h
  3494  0CD4  00A6               	bcf	status, 5	;RP0=0, select bank0
  3495  0CD5  1283               	bcf	status, 6	;RP1=0, select bank0
  3496  0CD6  1303               	movf	(0+(?___fltol)),w
  3497  0CD7  086A               	bsf	status, 5	;RP0=1, select bank1
  3498  0CD8  1683               	bcf	status, 6	;RP1=0, select bank1
  3499  0CD9  1303               	movwf	(PWM2_Duty@duty)^080h
  3500  0CDA  00A5               	line	434
  3501                           	
  3502                           l2292:	
  3503  0CDB                     ;procedures.c: 434:     CCP2X = duty & 2;
  3504                           	bcf	status, 5	;RP0=0, select bank0
  3505  0CDB  1283               	bcf	status, 6	;RP1=0, select bank0
  3506  0CDC  1303               	bcf	(237/8),(237)&7	;volatile
  3507  0CDD  129D               	line	435
  3508                           	
  3509                           l2294:	
  3510  0CDE                     ;procedures.c: 435:     CCP2Y = duty & 1;
  3511                           	bsf	status, 5	;RP0=1, select bank1
  3512  0CDE  1683               	bcf	status, 6	;RP1=0, select bank1
  3513  0CDF  1303               	btfsc	(PWM2_Duty@duty)^080h,0
  3514  0CE0  1825               	goto	u2461
  3515  0CE1  2CE3               	goto	u2460
  3516  0CE2  2CE7               	
  3517                           u2461:
  3518  0CE3                     	bcf	status, 5	;RP0=0, select bank0
  3519  0CE3  1283               	bcf	status, 6	;RP1=0, select bank0
  3520  0CE4  1303               	bsf	(236/8),(236)&7	;volatile
  3521  0CE5  161D               	goto	u2474
  3522  0CE6  2CEA               u2460:
  3523  0CE7                     	bcf	status, 5	;RP0=0, select bank0
  3524  0CE7  1283               	bcf	status, 6	;RP1=0, select bank0
  3525  0CE8  1303               	bcf	(236/8),(236)&7	;volatile
  3526  0CE9  121D               u2474:
  3527  0CEA                     	line	436
  3528                           	
  3529                           l2296:	
  3530  0CEA                     ;procedures.c: 436:     CCPR2L = duty>>2;
  3531                           	bsf	status, 5	;RP0=1, select bank1
  3532  0CEA  1683               	bcf	status, 6	;RP1=0, select bank1
  3533  0CEB  1303               	movf	(PWM2_Duty@duty+1)^080h,w
  3534  0CEC  0826               	movwf	(??_PWM2_Duty+0)^080h+0+1
  3535  0CED  00A8               	movf	(PWM2_Duty@duty)^080h,w
  3536  0CEE  0825               	movwf	(??_PWM2_Duty+0)^080h+0
  3537  0CEF  00A7               	clrc
  3538  0CF0  1003               	rrf	(??_PWM2_Duty+0)^080h+1,f
  3539  0CF1  0CA8               	rrf	(??_PWM2_Duty+0)^080h+0,f
  3540  0CF2  0CA7               	clrc
  3541  0CF3  1003               	rrf	(??_PWM2_Duty+0)^080h+1,f
  3542  0CF4  0CA8               	rrf	(??_PWM2_Duty+0)^080h+0,f
  3543  0CF5  0CA7               	movf	0+(??_PWM2_Duty+0)^080h+0,w
  3544  0CF6  0827               	bcf	status, 5	;RP0=0, select bank0
  3545  0CF7  1283               	bcf	status, 6	;RP1=0, select bank0
  3546  0CF8  1303               	movwf	(27)	;volatile
  3547  0CF9  009B               	goto	l363
  3548  0CFA  2CFB               	line	437
  3549                           ;procedures.c: 437:   }
  3550                           	
  3551                           l362:	
  3552  0CFB                     	line	438
  3553                           	
  3554                           l363:	
  3555  0CFB                     	return
  3556  0CFB  0008               	opt stack 0
  3557                           GLOBAL	__end_of_PWM2_Duty
  3558                           	__end_of_PWM2_Duty:
  3559  0CFC                     	signat	_PWM2_Duty,4217
  3560                           	global	_PWM1_Duty
  3561                           
  3562 ;; *************** function _PWM1_Duty *****************
  3563 ;; Defined at:
  3564 ;;		line 418 in file "procedures.c"
  3565 ;; Parameters:    Size  Location     Type
  3566 ;;  duty            2    5[BANK1 ] unsigned int 
  3567 ;; Auto vars:     Size  Location     Type
  3568 ;;		None
  3569 ;; Return value:  Size  Location     Type
  3570 ;;                  1    wreg      void 
  3571 ;; Registers used:
  3572 ;;		wreg, status,2, status,0, btemp+1, pclath, cstack
  3573 ;; Tracked objects:
  3574 ;;		On entry : 0/0
  3575 ;;		On exit  : 0/0
  3576 ;;		Unchanged: 0/0
  3577 ;; Data sizes:     COMMON   BANK0   BANK1   BANK3   BANK2
  3578 ;;      Params:         0       0       2       0       0
  3579 ;;      Locals:         0       0       0       0       0
  3580 ;;      Temps:          0       0       2       0       0
  3581 ;;      Totals:         0       0       4       0       0
  3582 ;;Total ram usage:        4 bytes
  3583 ;; Hardware stack levels used:    1
  3584 ;; Hardware stack levels required when called:    2
  3585 ;; This function calls:
  3586 ;;		_PWM_Max_Duty
  3587 ;;		___fldiv
  3588 ;;		___flmul
  3589 ;;		___fltol
  3590 ;;		___xxtofl
  3591 ;; This function is called by:
  3592 ;;		_analogWrite
  3593 ;; This function uses a non-reentrant model
  3594 ;;
  3595                           psect	text10,local,class=CODE,delta=2,merge=1,group=0
  3596                           	line	418
  3597                           global __ptext10
  3598                           __ptext10:	;psect for function _PWM1_Duty
  3599  0BBE                     psect	text10
  3600                           	file	"procedures.c"
  3601                           	line	418
  3602                           	global	__size_of_PWM1_Duty
  3603                           	__size_of_PWM1_Duty	equ	__end_of_PWM1_Duty-_PWM1_Duty
  3604  009F                     	
  3605                           _PWM1_Duty:	
  3606  0BBE                     ;incstack = 0
  3607                           	opt	stack 3
  3608                           ; Regs used in _PWM1_Duty: [wreg+status,2+status,0+btemp+1+pclath+cstack]
  3609                           	line	420
  3610                           	
  3611                           l2298:	
  3612  0BBE                     ;procedures.c: 418: void PWM1_Duty(unsigned int duty);procedures.c: 419: {;procedures.c:
                                  420:   if(duty<1024)
  3613                           	movlw	04h
  3614  0BBE  3004               	bsf	status, 5	;RP0=1, select bank1
  3615  0BBF  1683               	bcf	status, 6	;RP1=0, select bank1
  3616  0BC0  1303               	subwf	(PWM1_Duty@duty+1)^080h,w
  3617  0BC1  0226               	movlw	0
  3618  0BC2  3000               	skipnz
  3619  0BC3  1903               	subwf	(PWM1_Duty@duty)^080h,w
  3620  0BC4  0225               	skipnc
  3621  0BC5  1803               	goto	u2481
  3622  0BC6  2BC8               	goto	u2480
  3623  0BC7  2BC9               u2481:
  3624  0BC8                     	goto	l359
  3625  0BC8  2C5C               u2480:
  3626  0BC9                     	line	422
  3627                           	
  3628                           l2300:	
  3629  0BC9                     ;procedures.c: 421:   {;procedures.c: 422:     duty = ((float)duty/1023)*PWM_Max_Duty();
                                 
  3630                           	movf	(PWM1_Duty@duty)^080h,w
  3631  0BC9  0825               	bcf	status, 5	;RP0=0, select bank0
  3632  0BCA  1283               	bcf	status, 6	;RP1=0, select bank0
  3633  0BCB  1303               	movwf	(___xxtofl@val)
  3634  0BCC  00A8               	bsf	status, 5	;RP0=1, select bank1
  3635  0BCD  1683               	bcf	status, 6	;RP1=0, select bank1
  3636  0BCE  1303               	movf	(PWM1_Duty@duty+1)^080h,w
  3637  0BCF  0826               	bcf	status, 5	;RP0=0, select bank0
  3638  0BD0  1283               	bcf	status, 6	;RP1=0, select bank0
  3639  0BD1  1303               	movwf	((___xxtofl@val))+1
  3640  0BD2  00A9               	clrf	2+((___xxtofl@val))
  3641  0BD3  01AA               	clrf	3+((___xxtofl@val))
  3642  0BD4  01AB               	movlw	low(0)
  3643  0BD5  3000               	fcall	___xxtofl
  3644  0BD6  120A  158A  25A2  120A  158A  	bcf	status, 5	;RP0=0, select bank0
  3645  0BDB  1283               	bcf	status, 6	;RP1=0, select bank0
  3646  0BDC  1303               	movf	(3+(?___xxtofl)),w
  3647  0BDD  082B               	movwf	(___fldiv@b+3)
  3648  0BDE  00BD               	movf	(2+(?___xxtofl)),w
  3649  0BDF  082A               	movwf	(___fldiv@b+2)
  3650  0BE0  00BC               	movf	(1+(?___xxtofl)),w
  3651  0BE1  0829               	movwf	(___fldiv@b+1)
  3652  0BE2  00BB               	movf	(0+(?___xxtofl)),w
  3653  0BE3  0828               	movwf	(___fldiv@b)
  3654  0BE4  00BA               
  3655                           	movlw	0x44
  3656  0BE5  3044               	movwf	(___fldiv@a+3)
  3657  0BE6  00B9               	movlw	0x7f
  3658  0BE7  307F               	movwf	(___fldiv@a+2)
  3659  0BE8  00B8               	movlw	0xc0
  3660  0BE9  30C0               	movwf	(___fldiv@a+1)
  3661  0BEA  00B7               	movlw	0x0
  3662  0BEB  3000               	movwf	(___fldiv@a)
  3663  0BEC  00B6               
  3664                           	fcall	___fldiv
  3665  0BED  120A  118A  2267  120A  158A  	bcf	status, 5	;RP0=0, select bank0
  3666  0BF2  1283               	bcf	status, 6	;RP1=0, select bank0
  3667  0BF3  1303               	movf	(3+(?___fldiv)),w
  3668  0BF4  0839               	movwf	(___flmul@a+3)
  3669  0BF5  00D7               	movf	(2+(?___fldiv)),w
  3670  0BF6  0838               	movwf	(___flmul@a+2)
  3671  0BF7  00D6               	movf	(1+(?___fldiv)),w
  3672  0BF8  0837               	movwf	(___flmul@a+1)
  3673  0BF9  00D5               	movf	(0+(?___fldiv)),w
  3674  0BFA  0836               	movwf	(___flmul@a)
  3675  0BFB  00D4               
  3676                           	fcall	_PWM_Max_Duty
  3677  0BFC  120A  158A  222F  120A  158A  	bcf	status, 5	;RP0=0, select bank0
  3678  0C01  1283               	bcf	status, 6	;RP1=0, select bank0
  3679  0C02  1303               	movf	(0+(?_PWM_Max_Duty)),w
  3680  0C03  0826               	movwf	(___xxtofl@val)
  3681  0C04  00A8               	movf	(1+(?_PWM_Max_Duty)),w
  3682  0C05  0827               	movwf	(___xxtofl@val+1)
  3683  0C06  00A9               	movlw	0
  3684  0C07  3000               	btfsc	(___xxtofl@val+1),7
  3685  0C08  1BA9               	movlw	255
  3686  0C09  30FF               	movwf	(___xxtofl@val+2)
  3687  0C0A  00AA               	movwf	(___xxtofl@val+3)
  3688  0C0B  00AB               	movlw	low(01h)
  3689  0C0C  3001               	fcall	___xxtofl
  3690  0C0D  120A  158A  25A2  120A  158A  	bcf	status, 5	;RP0=0, select bank0
  3691  0C12  1283               	bcf	status, 6	;RP1=0, select bank0
  3692  0C13  1303               	movf	(3+(?___xxtofl)),w
  3693  0C14  082B               	movwf	(___flmul@b+3)
  3694  0C15  00D3               	movf	(2+(?___xxtofl)),w
  3695  0C16  082A               	movwf	(___flmul@b+2)
  3696  0C17  00D2               	movf	(1+(?___xxtofl)),w
  3697  0C18  0829               	movwf	(___flmul@b+1)
  3698  0C19  00D1               	movf	(0+(?___xxtofl)),w
  3699  0C1A  0828               	movwf	(___flmul@b)
  3700  0C1B  00D0               
  3701                           	fcall	___flmul
  3702  0C1C  120A  118A  2470  120A  158A  	bcf	status, 5	;RP0=0, select bank0
  3703  0C21  1283               	bcf	status, 6	;RP1=0, select bank0
  3704  0C22  1303               	movf	(3+(?___flmul)),w
  3705  0C23  0853               	movwf	(___fltol@f1+3)
  3706  0C24  00ED               	movf	(2+(?___flmul)),w
  3707  0C25  0852               	movwf	(___fltol@f1+2)
  3708  0C26  00EC               	movf	(1+(?___flmul)),w
  3709  0C27  0851               	movwf	(___fltol@f1+1)
  3710  0C28  00EB               	movf	(0+(?___flmul)),w
  3711  0C29  0850               	movwf	(___fltol@f1)
  3712  0C2A  00EA               
  3713                           	fcall	___fltol
  3714  0C2B  120A  158A  2666  120A  158A  	bcf	status, 5	;RP0=0, select bank0
  3715  0C30  1283               	bcf	status, 6	;RP1=0, select bank0
  3716  0C31  1303               	movf	(1+(?___fltol)),w
  3717  0C32  086B               	bsf	status, 5	;RP0=1, select bank1
  3718  0C33  1683               	bcf	status, 6	;RP1=0, select bank1
  3719  0C34  1303               	movwf	(PWM1_Duty@duty+1)^080h
  3720  0C35  00A6               	bcf	status, 5	;RP0=0, select bank0
  3721  0C36  1283               	bcf	status, 6	;RP1=0, select bank0
  3722  0C37  1303               	movf	(0+(?___fltol)),w
  3723  0C38  086A               	bsf	status, 5	;RP0=1, select bank1
  3724  0C39  1683               	bcf	status, 6	;RP1=0, select bank1
  3725  0C3A  1303               	movwf	(PWM1_Duty@duty)^080h
  3726  0C3B  00A5               	line	423
  3727                           	
  3728                           l2302:	
  3729  0C3C                     ;procedures.c: 423:     CCP1X = duty & 2;
  3730                           	bcf	status, 5	;RP0=0, select bank0
  3731  0C3C  1283               	bcf	status, 6	;RP1=0, select bank0
  3732  0C3D  1303               	bcf	(189/8),(189)&7	;volatile
  3733  0C3E  1297               	line	424
  3734                           	
  3735                           l2304:	
  3736  0C3F                     ;procedures.c: 424:     CCP1Y = duty & 1;
  3737                           	bsf	status, 5	;RP0=1, select bank1
  3738  0C3F  1683               	bcf	status, 6	;RP1=0, select bank1
  3739  0C40  1303               	btfsc	(PWM1_Duty@duty)^080h,0
  3740  0C41  1825               	goto	u2491
  3741  0C42  2C44               	goto	u2490
  3742  0C43  2C48               	
  3743                           u2491:
  3744  0C44                     	bcf	status, 5	;RP0=0, select bank0
  3745  0C44  1283               	bcf	status, 6	;RP1=0, select bank0
  3746  0C45  1303               	bsf	(188/8),(188)&7	;volatile
  3747  0C46  1617               	goto	u2504
  3748  0C47  2C4B               u2490:
  3749  0C48                     	bcf	status, 5	;RP0=0, select bank0
  3750  0C48  1283               	bcf	status, 6	;RP1=0, select bank0
  3751  0C49  1303               	bcf	(188/8),(188)&7	;volatile
  3752  0C4A  1217               u2504:
  3753  0C4B                     	line	425
  3754                           	
  3755                           l2306:	
  3756  0C4B                     ;procedures.c: 425:     CCPR1L = duty>>2;
  3757                           	bsf	status, 5	;RP0=1, select bank1
  3758  0C4B  1683               	bcf	status, 6	;RP1=0, select bank1
  3759  0C4C  1303               	movf	(PWM1_Duty@duty+1)^080h,w
  3760  0C4D  0826               	movwf	(??_PWM1_Duty+0)^080h+0+1
  3761  0C4E  00A8               	movf	(PWM1_Duty@duty)^080h,w
  3762  0C4F  0825               	movwf	(??_PWM1_Duty+0)^080h+0
  3763  0C50  00A7               	clrc
  3764  0C51  1003               	rrf	(??_PWM1_Duty+0)^080h+1,f
  3765  0C52  0CA8               	rrf	(??_PWM1_Duty+0)^080h+0,f
  3766  0C53  0CA7               	clrc
  3767  0C54  1003               	rrf	(??_PWM1_Duty+0)^080h+1,f
  3768  0C55  0CA8               	rrf	(??_PWM1_Duty+0)^080h+0,f
  3769  0C56  0CA7               	movf	0+(??_PWM1_Duty+0)^080h+0,w
  3770  0C57  0827               	bcf	status, 5	;RP0=0, select bank0
  3771  0C58  1283               	bcf	status, 6	;RP1=0, select bank0
  3772  0C59  1303               	movwf	(21)	;volatile
  3773  0C5A  0095               	goto	l359
  3774  0C5B  2C5C               	line	426
  3775                           ;procedures.c: 426:   }
  3776                           	
  3777                           l358:	
  3778  0C5C                     	line	427
  3779                           	
  3780                           l359:	
  3781  0C5C                     	return
  3782  0C5C  0008               	opt stack 0
  3783                           GLOBAL	__end_of_PWM1_Duty
  3784                           	__end_of_PWM1_Duty:
  3785  0C5D                     	signat	_PWM1_Duty,4217
  3786                           	global	___xxtofl
  3787                           
  3788 ;; *************** function ___xxtofl *****************
  3789 ;; Defined at:
  3790 ;;		line 10 in file "C:\Program Files (x86)\Microchip\xc8\v2.00\pic\sources\c90\common\xxtofl.c"
  3791 ;; Parameters:    Size  Location     Type
  3792 ;;  sign            1    wreg     unsigned char 
  3793 ;;  val             4    8[BANK0 ] long 
  3794 ;; Auto vars:     Size  Location     Type
  3795 ;;  sign            1   16[BANK0 ] unsigned char 
  3796 ;;  arg             4   18[BANK0 ] unsigned long 
  3797 ;;  exp             1   17[BANK0 ] unsigned char 
  3798 ;; Return value:  Size  Location     Type
  3799 ;;                  4    8[BANK0 ] unsigned char 
  3800 ;; Registers used:
  3801 ;;		wreg, status,2, status,0
  3802 ;; Tracked objects:
  3803 ;;		On entry : 0/0
  3804 ;;		On exit  : 0/0
  3805 ;;		Unchanged: 0/0
  3806 ;; Data sizes:     COMMON   BANK0   BANK1   BANK3   BANK2
  3807 ;;      Params:         0       4       0       0       0
  3808 ;;      Locals:         0       6       0       0       0
  3809 ;;      Temps:          0       4       0       0       0
  3810 ;;      Totals:         0      14       0       0       0
  3811 ;;Total ram usage:       14 bytes
  3812 ;; Hardware stack levels used:    1
  3813 ;; This function calls:
  3814 ;;		Nothing
  3815 ;; This function is called by:
  3816 ;;		_PWM1_Duty
  3817 ;;		_PWM2_Duty
  3818 ;; This function uses a non-reentrant model
  3819 ;;
  3820                           psect	text11,local,class=CODE,delta=2,merge=1,group=1
  3821                           	file	"C:\Program Files (x86)\Microchip\xc8\v2.00\pic\sources\c90\common\xxtofl.c"
  3822                           	line	10
  3823                           global __ptext11
  3824                           __ptext11:	;psect for function ___xxtofl
  3825  0DA2                     psect	text11
  3826                           	file	"C:\Program Files (x86)\Microchip\xc8\v2.00\pic\sources\c90\common\xxtofl.c"
  3827                           	line	10
  3828                           	global	__size_of___xxtofl
  3829                           	__size_of___xxtofl	equ	__end_of___xxtofl-___xxtofl
  3830  00C4                     	
  3831                           ___xxtofl:	
  3832  0DA2                     ;incstack = 0
  3833                           	opt	stack 4
  3834                           ; Regs used in ___xxtofl: [wreg+status,2+status,0]
  3835                           ;___xxtofl@sign stored from wreg
  3836                           	bcf	status, 5	;RP0=0, select bank0
  3837  0DA2  1283               	bcf	status, 6	;RP1=0, select bank0
  3838  0DA3  1303               	movwf	(___xxtofl@sign)
  3839  0DA4  00B0               	line	15
  3840                           	
  3841                           l2244:	
  3842  0DA5                     	movf	((___xxtofl@sign)),w
  3843  0DA5  0830               	btfsc	status,2
  3844  0DA6  1903               	goto	u2311
  3845  0DA7  2DA9               	goto	u2310
  3846  0DA8  2DAA               u2311:
  3847  0DA9                     	goto	l2250
  3848  0DA9  2DBE               u2310:
  3849  0DAA                     	
  3850                           l2246:	
  3851  0DAA                     	btfss	(___xxtofl@val+3),7
  3852  0DAA  1FAB               	goto	u2321
  3853  0DAB  2DAD               	goto	u2320
  3854  0DAC  2DAE               u2321:
  3855  0DAD                     	goto	l2250
  3856  0DAD  2DBE               u2320:
  3857  0DAE                     	line	16
  3858                           	
  3859                           l2248:	
  3860  0DAE                     	comf	(___xxtofl@val)+0,w
  3861  0DAE  0928               	movwf	(___xxtofl@arg)
  3862  0DAF  00B2               	comf	(___xxtofl@val)+1,w
  3863  0DB0  0929               	movwf	(___xxtofl@arg+1)
  3864  0DB1  00B3               	comf	(___xxtofl@val)+2,w
  3865  0DB2  092A               	movwf	(___xxtofl@arg+2)
  3866  0DB3  00B4               	comf	(___xxtofl@val)+3,w
  3867  0DB4  092B               	movwf	(___xxtofl@arg+3)
  3868  0DB5  00B5               	incf	(___xxtofl@arg),f
  3869  0DB6  0AB2               	skipnz
  3870  0DB7  1903               	incf	(___xxtofl@arg+1),f
  3871  0DB8  0AB3               	skipnz
  3872  0DB9  1903               	incf	(___xxtofl@arg+2),f
  3873  0DBA  0AB4               	skipnz
  3874  0DBB  1903               	incf	(___xxtofl@arg+3),f
  3875  0DBC  0AB5               	line	17
  3876                           	goto	l869
  3877  0DBD  2DC6               	line	18
  3878                           	
  3879                           l868:	
  3880  0DBE                     	line	19
  3881                           	
  3882                           l2250:	
  3883  0DBE                     	movf	(___xxtofl@val+3),w
  3884  0DBE  082B               	movwf	(___xxtofl@arg+3)
  3885  0DBF  00B5               	movf	(___xxtofl@val+2),w
  3886  0DC0  082A               	movwf	(___xxtofl@arg+2)
  3887  0DC1  00B4               	movf	(___xxtofl@val+1),w
  3888  0DC2  0829               	movwf	(___xxtofl@arg+1)
  3889  0DC3  00B3               	movf	(___xxtofl@val),w
  3890  0DC4  0828               	movwf	(___xxtofl@arg)
  3891  0DC5  00B2               
  3892                           	line	20
  3893                           	
  3894                           l869:	
  3895  0DC6                     	line	21
  3896                           	movf	(___xxtofl@val+3),w
  3897  0DC6  082B               	iorwf	(___xxtofl@val+2),w
  3898  0DC7  042A               	iorwf	(___xxtofl@val+1),w
  3899  0DC8  0429               	iorwf	(___xxtofl@val),w
  3900  0DC9  0428               	skipz
  3901  0DCA  1D03               	goto	u2331
  3902  0DCB  2DCD               	goto	u2330
  3903  0DCC  2DCE               u2331:
  3904  0DCD                     	goto	l2256
  3905  0DCD  2DD8               u2330:
  3906  0DCE                     	line	22
  3907                           	
  3908                           l2252:	
  3909  0DCE                     	movlw	0x0
  3910  0DCE  3000               	movwf	(?___xxtofl+3)
  3911  0DCF  00AB               	movlw	0x0
  3912  0DD0  3000               	movwf	(?___xxtofl+2)
  3913  0DD1  00AA               	movlw	0x0
  3914  0DD2  3000               	movwf	(?___xxtofl+1)
  3915  0DD3  00A9               	movlw	0x0
  3916  0DD4  3000               	movwf	(?___xxtofl)
  3917  0DD5  00A8               
  3918                           	goto	l871
  3919  0DD6  2E65               	
  3920                           l2254:	
  3921  0DD7                     	goto	l871
  3922  0DD7  2E65               	
  3923                           l870:	
  3924  0DD8                     	line	23
  3925                           	
  3926                           l2256:	
  3927  0DD8                     	movlw	low(096h)
  3928  0DD8  3096               	movwf	(??___xxtofl+0)+0
  3929  0DD9  00AC               	movf	(??___xxtofl+0)+0,w
  3930  0DDA  082C               	movwf	(___xxtofl@exp)
  3931  0DDB  00B1               	line	24
  3932                           	goto	l2260
  3933  0DDC  2DEB               	
  3934                           l873:	
  3935  0DDD                     	line	25
  3936                           	
  3937                           l2258:	
  3938  0DDD                     	movlw	low(01h)
  3939  0DDD  3001               	movwf	(??___xxtofl+0)+0
  3940  0DDE  00AC               	movf	(??___xxtofl+0)+0,w
  3941  0DDF  082C               	addwf	(___xxtofl@exp),f
  3942  0DE0  07B1               	line	26
  3943                           	movlw	01h
  3944  0DE1  3001               u2345:
  3945  0DE2                     	clrc
  3946  0DE2  1003               	rrf	(___xxtofl@arg+3),f
  3947  0DE3  0CB5               	rrf	(___xxtofl@arg+2),f
  3948  0DE4  0CB4               	rrf	(___xxtofl@arg+1),f
  3949  0DE5  0CB3               	rrf	(___xxtofl@arg),f
  3950  0DE6  0CB2               	addlw	-1
  3951  0DE7  3EFF               	skipz
  3952  0DE8  1D03               	goto	u2345
  3953  0DE9  2DE2               
  3954                           	goto	l2260
  3955  0DEA  2DEB               	line	27
  3956                           	
  3957                           l872:	
  3958  0DEB                     	line	24
  3959                           	
  3960                           l2260:	
  3961  0DEB                     	movlw	high highword(0FE000000h)
  3962  0DEB  30FE               	andwf	(___xxtofl@arg+3),w
  3963  0DEC  0535               	btfss	status,2
  3964  0DED  1D03               	goto	u2351
  3965  0DEE  2DF0               	goto	u2350
  3966  0DEF  2DF1               u2351:
  3967  0DF0                     	goto	l2258
  3968  0DF0  2DDD               u2350:
  3969  0DF1                     	goto	l875
  3970  0DF1  2E0E               	
  3971                           l874:	
  3972  0DF2                     	line	28
  3973                           	goto	l875
  3974  0DF2  2E0E               	
  3975                           l876:	
  3976  0DF3                     	line	29
  3977                           	
  3978                           l2262:	
  3979  0DF3                     	movlw	low(01h)
  3980  0DF3  3001               	movwf	(??___xxtofl+0)+0
  3981  0DF4  00AC               	movf	(??___xxtofl+0)+0,w
  3982  0DF5  082C               	addwf	(___xxtofl@exp),f
  3983  0DF6  07B1               	line	30
  3984                           	
  3985                           l2264:	
  3986  0DF7                     	movlw	01h
  3987  0DF7  3001               	addwf	(___xxtofl@arg),f
  3988  0DF8  07B2               	movlw	0
  3989  0DF9  3000               	skipnc
  3990  0DFA  1803               movlw 1
  3991  0DFB  3001               	addwf	(___xxtofl@arg+1),f
  3992  0DFC  07B3               	movlw	0
  3993  0DFD  3000               	skipnc
  3994  0DFE  1803               movlw 1
  3995  0DFF  3001               	addwf	(___xxtofl@arg+2),f
  3996  0E00  07B4               	movlw	0
  3997  0E01  3000               	skipnc
  3998  0E02  1803               movlw 1
  3999  0E03  3001               	addwf	(___xxtofl@arg+3),f
  4000  0E04  07B5               	line	31
  4001                           	
  4002                           l2266:	
  4003  0E05                     	movlw	01h
  4004  0E05  3001               u2365:
  4005  0E06                     	clrc
  4006  0E06  1003               	rrf	(___xxtofl@arg+3),f
  4007  0E07  0CB5               	rrf	(___xxtofl@arg+2),f
  4008  0E08  0CB4               	rrf	(___xxtofl@arg+1),f
  4009  0E09  0CB3               	rrf	(___xxtofl@arg),f
  4010  0E0A  0CB2               	addlw	-1
  4011  0E0B  3EFF               	skipz
  4012  0E0C  1D03               	goto	u2365
  4013  0E0D  2E06               
  4014                           	line	32
  4015                           	
  4016                           l875:	
  4017  0E0E                     	line	28
  4018                           	movlw	high highword(0FF000000h)
  4019  0E0E  30FF               	andwf	(___xxtofl@arg+3),w
  4020  0E0F  0535               	btfss	status,2
  4021  0E10  1D03               	goto	u2371
  4022  0E11  2E13               	goto	u2370
  4023  0E12  2E14               u2371:
  4024  0E13                     	goto	l2262
  4025  0E13  2DF3               u2370:
  4026  0E14                     	goto	l2270
  4027  0E14  2E22               	
  4028                           l877:	
  4029  0E15                     	line	33
  4030                           	goto	l2270
  4031  0E15  2E22               	
  4032                           l879:	
  4033  0E16                     	line	34
  4034                           	
  4035                           l2268:	
  4036  0E16                     	movlw	01h
  4037  0E16  3001               	subwf	(___xxtofl@exp),f
  4038  0E17  02B1               	line	35
  4039                           	movlw	01h
  4040  0E18  3001               	movwf	(??___xxtofl+0)+0
  4041  0E19  00AC               u2385:
  4042  0E1A                     	clrc
  4043  0E1A  1003               	rlf	(___xxtofl@arg),f
  4044  0E1B  0DB2               	rlf	(___xxtofl@arg+1),f
  4045  0E1C  0DB3               	rlf	(___xxtofl@arg+2),f
  4046  0E1D  0DB4               	rlf	(___xxtofl@arg+3),f
  4047  0E1E  0DB5               	decfsz	(??___xxtofl+0)+0
  4048  0E1F  0BAC               	goto	u2385
  4049  0E20  2E1A               	goto	l2270
  4050  0E21  2E22               	line	36
  4051                           	
  4052                           l878:	
  4053  0E22                     	line	33
  4054                           	
  4055                           l2270:	
  4056  0E22                     	btfsc	(___xxtofl@arg+2),(23)&7
  4057  0E22  1BB4               	goto	u2391
  4058  0E23  2E25               	goto	u2390
  4059  0E24  2E26               u2391:
  4060  0E25                     	goto	l882
  4061  0E25  2E2D               u2390:
  4062  0E26                     	
  4063                           l2272:	
  4064  0E26                     	movlw	low(02h)
  4065  0E26  3002               	subwf	(___xxtofl@exp),w
  4066  0E27  0231               	skipnc
  4067  0E28  1803               	goto	u2401
  4068  0E29  2E2B               	goto	u2400
  4069  0E2A  2E2C               u2401:
  4070  0E2B                     	goto	l2268
  4071  0E2B  2E16               u2400:
  4072  0E2C                     	goto	l882
  4073  0E2C  2E2D               	
  4074                           l881:	
  4075  0E2D                     	
  4076                           l882:	
  4077  0E2D                     	line	37
  4078                           	btfsc	(___xxtofl@exp),(0)&7
  4079  0E2D  1831               	goto	u2411
  4080  0E2E  2E30               	goto	u2410
  4081  0E2F  2E31               u2411:
  4082  0E30                     	goto	l883
  4083  0E30  2E39               u2410:
  4084  0E31                     	line	38
  4085                           	
  4086                           l2274:	
  4087  0E31                     	movlw	0FFh
  4088  0E31  30FF               	andwf	(___xxtofl@arg),f
  4089  0E32  05B2               	movlw	0FFh
  4090  0E33  30FF               	andwf	(___xxtofl@arg+1),f
  4091  0E34  05B3               	movlw	07Fh
  4092  0E35  307F               	andwf	(___xxtofl@arg+2),f
  4093  0E36  05B4               	movlw	0FFh
  4094  0E37  30FF               	andwf	(___xxtofl@arg+3),f
  4095  0E38  05B5               	
  4096                           l883:	
  4097  0E39                     	line	39
  4098                           	clrc
  4099  0E39  1003               	rrf	(___xxtofl@exp),f
  4100  0E3A  0CB1               
  4101                           	line	40
  4102                           	
  4103                           l2276:	
  4104  0E3B                     	movf	(___xxtofl@exp),w
  4105  0E3B  0831               	movwf	(??___xxtofl+0)+0
  4106  0E3C  00AC               	clrf	(??___xxtofl+0)+0+1
  4107  0E3D  01AD               	clrf	(??___xxtofl+0)+0+2
  4108  0E3E  01AE               	clrf	(??___xxtofl+0)+0+3
  4109  0E3F  01AF               	movlw	018h
  4110  0E40  3018               u2425:
  4111  0E41                     	clrc
  4112  0E41  1003               	rlf	(??___xxtofl+0)+0,f
  4113  0E42  0DAC               	rlf	(??___xxtofl+0)+1,f
  4114  0E43  0DAD               	rlf	(??___xxtofl+0)+2,f
  4115  0E44  0DAE               	rlf	(??___xxtofl+0)+3,f
  4116  0E45  0DAF               u2420:
  4117  0E46                     	addlw	-1
  4118  0E46  3EFF               	skipz
  4119  0E47  1D03               	goto	u2425
  4120  0E48  2E41               	movf	0+(??___xxtofl+0)+0,w
  4121  0E49  082C               	iorwf	(___xxtofl@arg),f
  4122  0E4A  04B2               	movf	1+(??___xxtofl+0)+0,w
  4123  0E4B  082D               	iorwf	(___xxtofl@arg+1),f
  4124  0E4C  04B3               	movf	2+(??___xxtofl+0)+0,w
  4125  0E4D  082E               	iorwf	(___xxtofl@arg+2),f
  4126  0E4E  04B4               	movf	3+(??___xxtofl+0)+0,w
  4127  0E4F  082F               	iorwf	(___xxtofl@arg+3),f
  4128  0E50  04B5               	line	41
  4129                           	
  4130                           l2278:	
  4131  0E51                     	movf	((___xxtofl@sign)),w
  4132  0E51  0830               	btfsc	status,2
  4133  0E52  1903               	goto	u2431
  4134  0E53  2E55               	goto	u2430
  4135  0E54  2E56               u2431:
  4136  0E55                     	goto	l2284
  4137  0E55  2E5C               u2430:
  4138  0E56                     	
  4139                           l2280:	
  4140  0E56                     	btfss	(___xxtofl@val+3),7
  4141  0E56  1FAB               	goto	u2441
  4142  0E57  2E59               	goto	u2440
  4143  0E58  2E5A               u2441:
  4144  0E59                     	goto	l2284
  4145  0E59  2E5C               u2440:
  4146  0E5A                     	line	42
  4147                           	
  4148                           l2282:	
  4149  0E5A                     	bsf	(___xxtofl@arg)+(31/8),(31)&7
  4150  0E5A  17B5               	goto	l2284
  4151  0E5B  2E5C               	
  4152                           l884:	
  4153  0E5C                     	line	43
  4154                           	
  4155                           l2284:	
  4156  0E5C                     	movf	(___xxtofl@arg+3),w
  4157  0E5C  0835               	movwf	(?___xxtofl+3)
  4158  0E5D  00AB               	movf	(___xxtofl@arg+2),w
  4159  0E5E  0834               	movwf	(?___xxtofl+2)
  4160  0E5F  00AA               	movf	(___xxtofl@arg+1),w
  4161  0E60  0833               	movwf	(?___xxtofl+1)
  4162  0E61  00A9               	movf	(___xxtofl@arg),w
  4163  0E62  0832               	movwf	(?___xxtofl)
  4164  0E63  00A8               
  4165                           	goto	l871
  4166  0E64  2E65               	
  4167                           l2286:	
  4168  0E65                     	line	44
  4169                           	
  4170                           l871:	
  4171  0E65                     	return
  4172  0E65  0008               	opt stack 0
  4173                           GLOBAL	__end_of___xxtofl
  4174                           	__end_of___xxtofl:
  4175  0E66                     	signat	___xxtofl,8316
  4176                           	global	___fltol
  4177                           
  4178 ;; *************** function ___fltol *****************
  4179 ;; Defined at:
  4180 ;;		line 43 in file "C:\Program Files (x86)\Microchip\xc8\v2.00\pic\sources\c90\common\fltol.c"
  4181 ;; Parameters:    Size  Location     Type
  4182 ;;  f1              4   74[BANK0 ] unsigned char 
  4183 ;; Auto vars:     Size  Location     Type
  4184 ;;  exp1            1   79[BANK0 ] unsigned char 
  4185 ;;  sign1           1   78[BANK0 ] unsigned char 
  4186 ;; Return value:  Size  Location     Type
  4187 ;;                  4   74[BANK0 ] long 
  4188 ;; Registers used:
  4189 ;;		wreg, status,2, status,0
  4190 ;; Tracked objects:
  4191 ;;		On entry : 0/0
  4192 ;;		On exit  : 0/0
  4193 ;;		Unchanged: 0/0
  4194 ;; Data sizes:     COMMON   BANK0   BANK1   BANK3   BANK2
  4195 ;;      Params:         0       4       0       0       0
  4196 ;;      Locals:         0       2       0       0       0
  4197 ;;      Temps:          0       0       5       0       0
  4198 ;;      Totals:         0       6       5       0       0
  4199 ;;Total ram usage:       11 bytes
  4200 ;; Hardware stack levels used:    1
  4201 ;; This function calls:
  4202 ;;		Nothing
  4203 ;; This function is called by:
  4204 ;;		_PWM1_Duty
  4205 ;;		_PWM2_Duty
  4206 ;; This function uses a non-reentrant model
  4207 ;;
  4208                           psect	text12,local,class=CODE,delta=2,merge=1,group=1
  4209                           	file	"C:\Program Files (x86)\Microchip\xc8\v2.00\pic\sources\c90\common\fltol.c"
  4210                           	line	43
  4211                           global __ptext12
  4212                           __ptext12:	;psect for function ___fltol
  4213  0E66                     psect	text12
  4214                           	file	"C:\Program Files (x86)\Microchip\xc8\v2.00\pic\sources\c90\common\fltol.c"
  4215                           	line	43
  4216                           	global	__size_of___fltol
  4217                           	__size_of___fltol	equ	__end_of___fltol-___fltol
  4218  00C8                     	
  4219                           ___fltol:	
  4220  0E66                     ;incstack = 0
  4221                           	opt	stack 4
  4222                           ; Regs used in ___fltol: [wreg+status,2+status,0]
  4223                           	line	47
  4224                           	
  4225                           l1926:	
  4226  0E66                     	bcf	status, 5	;RP0=0, select bank0
  4227  0E66  1283               	bcf	status, 6	;RP1=0, select bank0
  4228  0E67  1303               	movf	(___fltol@f1),w
  4229  0E68  086A               	bsf	status, 5	;RP0=1, select bank1
  4230  0E69  1683               	bcf	status, 6	;RP1=0, select bank1
  4231  0E6A  1303               	movwf	(??___fltol+0)^080h+0
  4232  0E6B  00A0               	bcf	status, 5	;RP0=0, select bank0
  4233  0E6C  1283               	bcf	status, 6	;RP1=0, select bank0
  4234  0E6D  1303               	movf	(___fltol@f1+1),w
  4235  0E6E  086B               	bsf	status, 5	;RP0=1, select bank1
  4236  0E6F  1683               	bcf	status, 6	;RP1=0, select bank1
  4237  0E70  1303               	movwf	((??___fltol+0)^080h+0+1)
  4238  0E71  00A1               	bcf	status, 5	;RP0=0, select bank0
  4239  0E72  1283               	bcf	status, 6	;RP1=0, select bank0
  4240  0E73  1303               	movf	(___fltol@f1+2),w
  4241  0E74  086C               	bsf	status, 5	;RP0=1, select bank1
  4242  0E75  1683               	bcf	status, 6	;RP1=0, select bank1
  4243  0E76  1303               	movwf	((??___fltol+0)^080h+0+2)
  4244  0E77  00A2               	bcf	status, 5	;RP0=0, select bank0
  4245  0E78  1283               	bcf	status, 6	;RP1=0, select bank0
  4246  0E79  1303               	movf	(___fltol@f1+3),w
  4247  0E7A  086D               	bsf	status, 5	;RP0=1, select bank1
  4248  0E7B  1683               	bcf	status, 6	;RP1=0, select bank1
  4249  0E7C  1303               	movwf	((??___fltol+0)^080h+0+3)
  4250  0E7D  00A3               	clrc
  4251  0E7E  1003               	rlf	(??___fltol+0)^080h+2,w
  4252  0E7F  0D22               	rlf	(??___fltol+0)^080h+3,w
  4253  0E80  0D23               	movwf	(??___fltol+4)^080h+0
  4254  0E81  00A4               	movf	(??___fltol+4)^080h+0,w
  4255  0E82  0824               	bcf	status, 5	;RP0=0, select bank0
  4256  0E83  1283               	bcf	status, 6	;RP1=0, select bank0
  4257  0E84  1303               	movwf	(___fltol@exp1)
  4258  0E85  00EF               	movf	(((___fltol@exp1))),w
  4259  0E86  086F               	btfss	status,2
  4260  0E87  1D03               	goto	u1551
  4261  0E88  2E8A               	goto	u1550
  4262  0E89  2E8B               u1551:
  4263  0E8A                     	goto	l1932
  4264  0E8A  2E95               u1550:
  4265  0E8B                     	line	48
  4266                           	
  4267                           l1928:	
  4268  0E8B                     	movlw	high highword(0)
  4269  0E8B  3000               	movwf	(?___fltol+3)
  4270  0E8C  00ED               	movlw	low highword(0)
  4271  0E8D  3000               	movwf	(?___fltol+2)
  4272  0E8E  00EC               	movlw	high(0)
  4273  0E8F  3000               	movwf	(?___fltol+1)
  4274  0E90  00EB               	movlw	low(0)
  4275  0E91  3000               	movwf	(?___fltol)
  4276  0E92  00EA               
  4277                           	goto	l647
  4278  0E93  2F2D               	
  4279                           l1930:	
  4280  0E94                     	goto	l647
  4281  0E94  2F2D               	
  4282                           l646:	
  4283  0E95                     	line	49
  4284                           	
  4285                           l1932:	
  4286  0E95                     	movf	(___fltol@f1),w
  4287  0E95  086A               	bsf	status, 5	;RP0=1, select bank1
  4288  0E96  1683               	bcf	status, 6	;RP1=0, select bank1
  4289  0E97  1303               	movwf	(??___fltol+0)^080h+0
  4290  0E98  00A0               	bcf	status, 5	;RP0=0, select bank0
  4291  0E99  1283               	bcf	status, 6	;RP1=0, select bank0
  4292  0E9A  1303               	movf	(___fltol@f1+1),w
  4293  0E9B  086B               	bsf	status, 5	;RP0=1, select bank1
  4294  0E9C  1683               	bcf	status, 6	;RP1=0, select bank1
  4295  0E9D  1303               	movwf	((??___fltol+0)^080h+0+1)
  4296  0E9E  00A1               	bcf	status, 5	;RP0=0, select bank0
  4297  0E9F  1283               	bcf	status, 6	;RP1=0, select bank0
  4298  0EA0  1303               	movf	(___fltol@f1+2),w
  4299  0EA1  086C               	bsf	status, 5	;RP0=1, select bank1
  4300  0EA2  1683               	bcf	status, 6	;RP1=0, select bank1
  4301  0EA3  1303               	movwf	((??___fltol+0)^080h+0+2)
  4302  0EA4  00A2               	bcf	status, 5	;RP0=0, select bank0
  4303  0EA5  1283               	bcf	status, 6	;RP1=0, select bank0
  4304  0EA6  1303               	movf	(___fltol@f1+3),w
  4305  0EA7  086D               	bsf	status, 5	;RP0=1, select bank1
  4306  0EA8  1683               	bcf	status, 6	;RP1=0, select bank1
  4307  0EA9  1303               	movwf	((??___fltol+0)^080h+0+3)
  4308  0EAA  00A3               	movlw	01Fh
  4309  0EAB  301F               u1565:
  4310  0EAC                     	clrc
  4311  0EAC  1003               	rrf	(??___fltol+0)^080h+3,f
  4312  0EAD  0CA3               	rrf	(??___fltol+0)^080h+2,f
  4313  0EAE  0CA2               	rrf	(??___fltol+0)^080h+1,f
  4314  0EAF  0CA1               	rrf	(??___fltol+0)^080h+0,f
  4315  0EB0  0CA0               u1560:
  4316  0EB1                     	addlw	-1
  4317  0EB1  3EFF               	skipz
  4318  0EB2  1D03               	goto	u1565
  4319  0EB3  2EAC               	movf	0+(??___fltol+0)^080h+0,w
  4320  0EB4  0820               	movwf	(??___fltol+4)^080h+0
  4321  0EB5  00A4               	movf	(??___fltol+4)^080h+0,w
  4322  0EB6  0824               	bcf	status, 5	;RP0=0, select bank0
  4323  0EB7  1283               	bcf	status, 6	;RP1=0, select bank0
  4324  0EB8  1303               	movwf	(___fltol@sign1)
  4325  0EB9  00EE               	line	50
  4326                           	
  4327                           l1934:	
  4328  0EBA                     	bsf	(___fltol@f1)+(23/8),(23)&7
  4329  0EBA  17EC               	line	51
  4330                           	
  4331                           l1936:	
  4332  0EBB                     	movlw	0FFh
  4333  0EBB  30FF               	andwf	(___fltol@f1),f
  4334  0EBC  05EA               	movlw	0FFh
  4335  0EBD  30FF               	andwf	(___fltol@f1+1),f
  4336  0EBE  05EB               	movlw	0FFh
  4337  0EBF  30FF               	andwf	(___fltol@f1+2),f
  4338  0EC0  05EC               	movlw	0
  4339  0EC1  3000               	andwf	(___fltol@f1+3),f
  4340  0EC2  05ED               	line	52
  4341                           	
  4342                           l1938:	
  4343  0EC3                     	movlw	096h
  4344  0EC3  3096               	subwf	(___fltol@exp1),f
  4345  0EC4  02EF               	line	53
  4346                           	
  4347                           l1940:	
  4348  0EC5                     	btfss	(___fltol@exp1),7
  4349  0EC5  1FEF               	goto	u1571
  4350  0EC6  2EC8               	goto	u1570
  4351  0EC7  2EC9               u1571:
  4352  0EC8                     	goto	l1950
  4353  0EC8  2EF2               u1570:
  4354  0EC9                     	line	54
  4355                           	
  4356                           l1942:	
  4357  0EC9                     	movf	(___fltol@exp1),w
  4358  0EC9  086F               	xorlw	80h
  4359  0ECA  3A80               	addlw	-((-23)^80h)
  4360  0ECB  3E97               	skipnc
  4361  0ECC  1803               	goto	u1581
  4362  0ECD  2ECF               	goto	u1580
  4363  0ECE  2ED0               u1581:
  4364  0ECF                     	goto	l1948
  4365  0ECF  2EDB               u1580:
  4366  0ED0                     	line	55
  4367                           	
  4368                           l1944:	
  4369  0ED0                     	movlw	high highword(0)
  4370  0ED0  3000               	movwf	(?___fltol+3)
  4371  0ED1  00ED               	movlw	low highword(0)
  4372  0ED2  3000               	movwf	(?___fltol+2)
  4373  0ED3  00EC               	movlw	high(0)
  4374  0ED4  3000               	movwf	(?___fltol+1)
  4375  0ED5  00EB               	movlw	low(0)
  4376  0ED6  3000               	movwf	(?___fltol)
  4377  0ED7  00EA               
  4378                           	goto	l647
  4379  0ED8  2F2D               	
  4380                           l1946:	
  4381  0ED9                     	goto	l647
  4382  0ED9  2F2D               	
  4383                           l649:	
  4384  0EDA                     	goto	l1948
  4385  0EDA  2EDB               	line	56
  4386                           	
  4387                           l650:	
  4388  0EDB                     	line	57
  4389                           	
  4390                           l1948:	
  4391  0EDB                     	movlw	01h
  4392  0EDB  3001               u1595:
  4393  0EDC                     	clrc
  4394  0EDC  1003               	rrf	(___fltol@f1+3),f
  4395  0EDD  0CED               	rrf	(___fltol@f1+2),f
  4396  0EDE  0CEC               	rrf	(___fltol@f1+1),f
  4397  0EDF  0CEB               	rrf	(___fltol@f1),f
  4398  0EE0  0CEA               	addlw	-1
  4399  0EE1  3EFF               	skipz
  4400  0EE2  1D03               	goto	u1595
  4401  0EE3  2EDC               
  4402                           	line	58
  4403                           	movlw	low(01h)
  4404  0EE4  3001               	bsf	status, 5	;RP0=1, select bank1
  4405  0EE5  1683               	bcf	status, 6	;RP1=0, select bank1
  4406  0EE6  1303               	movwf	(??___fltol+0)^080h+0
  4407  0EE7  00A0               	movf	(??___fltol+0)^080h+0,w
  4408  0EE8  0820               	bcf	status, 5	;RP0=0, select bank0
  4409  0EE9  1283               	bcf	status, 6	;RP1=0, select bank0
  4410  0EEA  1303               	addwf	(___fltol@exp1),f
  4411  0EEB  07EF               	btfss	status,2
  4412  0EEC  1D03               	goto	u1601
  4413  0EED  2EEF               	goto	u1600
  4414  0EEE  2EF0               u1601:
  4415  0EEF                     	goto	l1948
  4416  0EEF  2EDB               u1600:
  4417  0EF0                     	goto	l1958
  4418  0EF0  2F1D               	
  4419                           l651:	
  4420  0EF1                     	line	59
  4421                           	goto	l1958
  4422  0EF1  2F1D               	
  4423                           l648:	
  4424  0EF2                     	line	60
  4425                           	
  4426                           l1950:	
  4427  0EF2                     	movlw	low(020h)
  4428  0EF2  3020               	subwf	(___fltol@exp1),w
  4429  0EF3  026F               	skipc
  4430  0EF4  1C03               	goto	u1611
  4431  0EF5  2EF7               	goto	u1610
  4432  0EF6  2EF8               u1611:
  4433  0EF7                     	goto	l654
  4434  0EF7  2F16               u1610:
  4435  0EF8                     	line	61
  4436                           	
  4437                           l1952:	
  4438  0EF8                     	movlw	high highword(0)
  4439  0EF8  3000               	movwf	(?___fltol+3)
  4440  0EF9  00ED               	movlw	low highword(0)
  4441  0EFA  3000               	movwf	(?___fltol+2)
  4442  0EFB  00EC               	movlw	high(0)
  4443  0EFC  3000               	movwf	(?___fltol+1)
  4444  0EFD  00EB               	movlw	low(0)
  4445  0EFE  3000               	movwf	(?___fltol)
  4446  0EFF  00EA               
  4447                           	goto	l647
  4448  0F00  2F2D               	
  4449                           l1954:	
  4450  0F01                     	goto	l647
  4451  0F01  2F2D               	
  4452                           l653:	
  4453  0F02                     	line	62
  4454                           	goto	l654
  4455  0F02  2F16               	
  4456                           l655:	
  4457  0F03                     	line	63
  4458                           	
  4459                           l1956:	
  4460  0F03                     	movlw	01h
  4461  0F03  3001               	bsf	status, 5	;RP0=1, select bank1
  4462  0F04  1683               	bcf	status, 6	;RP1=0, select bank1
  4463  0F05  1303               	movwf	(??___fltol+0)^080h+0
  4464  0F06  00A0               u1625:
  4465  0F07                     	clrc
  4466  0F07  1003               	bcf	status, 5	;RP0=0, select bank0
  4467  0F08  1283               	bcf	status, 6	;RP1=0, select bank0
  4468  0F09  1303               	rlf	(___fltol@f1),f
  4469  0F0A  0DEA               	rlf	(___fltol@f1+1),f
  4470  0F0B  0DEB               	rlf	(___fltol@f1+2),f
  4471  0F0C  0DEC               	rlf	(___fltol@f1+3),f
  4472  0F0D  0DED               	bsf	status, 5	;RP0=1, select bank1
  4473  0F0E  1683               	bcf	status, 6	;RP1=0, select bank1
  4474  0F0F  1303               	decfsz	(??___fltol+0)^080h+0
  4475  0F10  0BA0               	goto	u1625
  4476  0F11  2F07               	line	64
  4477                           	movlw	01h
  4478  0F12  3001               	bcf	status, 5	;RP0=0, select bank0
  4479  0F13  1283               	bcf	status, 6	;RP1=0, select bank0
  4480  0F14  1303               	subwf	(___fltol@exp1),f
  4481  0F15  02EF               	line	65
  4482                           	
  4483                           l654:	
  4484  0F16                     	line	62
  4485                           	movf	((___fltol@exp1)),w
  4486  0F16  086F               	btfss	status,2
  4487  0F17  1D03               	goto	u1631
  4488  0F18  2F1A               	goto	u1630
  4489  0F19  2F1B               u1631:
  4490  0F1A                     	goto	l1956
  4491  0F1A  2F03               u1630:
  4492  0F1B                     	goto	l1958
  4493  0F1B  2F1D               	
  4494                           l656:	
  4495  0F1C                     	goto	l1958
  4496  0F1C  2F1D               	line	66
  4497                           	
  4498                           l652:	
  4499  0F1D                     	line	67
  4500                           	
  4501                           l1958:	
  4502  0F1D                     	movf	((___fltol@sign1)),w
  4503  0F1D  086E               	btfsc	status,2
  4504  0F1E  1903               	goto	u1641
  4505  0F1F  2F21               	goto	u1640
  4506  0F20  2F22               u1641:
  4507  0F21                     	goto	l657
  4508  0F21  2F2D               u1640:
  4509  0F22                     	line	68
  4510                           	
  4511                           l1960:	
  4512  0F22                     	comf	(___fltol@f1),f
  4513  0F22  09EA               	comf	(___fltol@f1+1),f
  4514  0F23  09EB               	comf	(___fltol@f1+2),f
  4515  0F24  09EC               	comf	(___fltol@f1+3),f
  4516  0F25  09ED               	incf	(___fltol@f1),f
  4517  0F26  0AEA               	skipnz
  4518  0F27  1903               	incf	(___fltol@f1+1),f
  4519  0F28  0AEB               	skipnz
  4520  0F29  1903               	incf	(___fltol@f1+2),f
  4521  0F2A  0AEC               	skipnz
  4522  0F2B  1903               	incf	(___fltol@f1+3),f
  4523  0F2C  0AED               	
  4524                           l657:	
  4525  0F2D                     	line	69
  4526                           	line	70
  4527                           	
  4528                           l647:	
  4529  0F2D                     	return
  4530  0F2D  0008               	opt stack 0
  4531                           GLOBAL	__end_of___fltol
  4532                           	__end_of___fltol:
  4533  0F2E                     	signat	___fltol,4220
  4534                           	global	___flmul
  4535                           
  4536 ;; *************** function ___flmul *****************
  4537 ;; Defined at:
  4538 ;;		line 8 in file "C:\Program Files (x86)\Microchip\xc8\v2.00\pic\sources\c90\common\sprcmul.c"
  4539 ;; Parameters:    Size  Location     Type
  4540 ;;  b               4   48[BANK0 ] long 
  4541 ;;  a               4   52[BANK0 ] long 
  4542 ;; Auto vars:     Size  Location     Type
  4543 ;;  prod            4   68[BANK0 ] struct .
  4544 ;;  grs             4   62[BANK0 ] unsigned long 
  4545 ;;  temp            2   72[BANK0 ] struct .
  4546 ;;  bexp            1   67[BANK0 ] unsigned char 
  4547 ;;  aexp            1   66[BANK0 ] unsigned char 
  4548 ;;  sign            1   61[BANK0 ] unsigned char 
  4549 ;; Return value:  Size  Location     Type
  4550 ;;                  4   48[BANK0 ] unsigned char 
  4551 ;; Registers used:
  4552 ;;		wreg, status,2, status,0, btemp+1, pclath, cstack
  4553 ;; Tracked objects:
  4554 ;;		On entry : 0/0
  4555 ;;		On exit  : 0/0
  4556 ;;		Unchanged: 0/0
  4557 ;; Data sizes:     COMMON   BANK0   BANK1   BANK3   BANK2
  4558 ;;      Params:         0       8       0       0       0
  4559 ;;      Locals:         0      13       0       0       0
  4560 ;;      Temps:          0       5       0       0       0
  4561 ;;      Totals:         0      26       0       0       0
  4562 ;;Total ram usage:       26 bytes
  4563 ;; Hardware stack levels used:    1
  4564 ;; Hardware stack levels required when called:    1
  4565 ;; This function calls:
  4566 ;;		__Umul8_16
  4567 ;; This function is called by:
  4568 ;;		_PWM1_Duty
  4569 ;;		_PWM2_Duty
  4570 ;; This function uses a non-reentrant model
  4571 ;;
  4572                           psect	text13,local,class=CODE,delta=2,merge=1,group=1
  4573                           	file	"C:\Program Files (x86)\Microchip\xc8\v2.00\pic\sources\c90\common\sprcmul.c"
  4574                           	line	8
  4575                           global __ptext13
  4576                           __ptext13:	;psect for function ___flmul
  4577  0470                     psect	text13
  4578                           	file	"C:\Program Files (x86)\Microchip\xc8\v2.00\pic\sources\c90\common\sprcmul.c"
  4579                           	line	8
  4580                           	global	__size_of___flmul
  4581                           	__size_of___flmul	equ	__end_of___flmul-___flmul
  4582  0375                     	
  4583                           ___flmul:	
  4584  0470                     ;incstack = 0
  4585                           	opt	stack 3
  4586                           ; Regs used in ___flmul: [wreg+status,2+status,0+btemp+1+pclath+cstack]
  4587                           	line	17
  4588                           	
  4589                           l2104:	
  4590  0470                     	bcf	status, 5	;RP0=0, select bank0
  4591  0470  1283               	bcf	status, 6	;RP1=0, select bank0
  4592  0471  1303               	movf	0+(___flmul@b)+03h,w
  4593  0472  0853               	andlw	080h
  4594  0473  3980               	movwf	(??___flmul+0)+0
  4595  0474  00D8               	movf	(??___flmul+0)+0,w
  4596  0475  0858               	movwf	(___flmul@sign)
  4597  0476  00DD               	line	18
  4598                           	
  4599                           l2106:	
  4600  0477                     	movf	0+(___flmul@b)+03h,w
  4601  0477  0853               	movwf	(??___flmul+0)+0
  4602  0478  00D8               	addwf	(??___flmul+0)+0,w
  4603  0479  0758               	movwf	(??___flmul+1)+0
  4604  047A  00D9               	movf	(??___flmul+1)+0,w
  4605  047B  0859               	movwf	(___flmul@bexp)
  4606  047C  00E3               	line	19
  4607                           	
  4608                           l2108:	
  4609  047D                     	btfss	0+(___flmul@b)+02h,(7)&7
  4610  047D  1FD2               	goto	u1941
  4611  047E  2C80               	goto	u1940
  4612  047F  2C81               u1941:
  4613  0480                     	goto	l2112
  4614  0480  2C83               u1940:
  4615  0481                     	line	20
  4616                           	
  4617                           l2110:	
  4618  0481                     	bsf	(___flmul@bexp)+(0/8),(0)&7
  4619  0481  1463               	goto	l2112
  4620  0482  2C83               	line	21
  4621                           	
  4622                           l839:	
  4623  0483                     	line	24
  4624                           	
  4625                           l2112:	
  4626  0483                     	movf	((___flmul@bexp)),w
  4627  0483  0863               	btfsc	status,2
  4628  0484  1903               	goto	u1951
  4629  0485  2C87               	goto	u1950
  4630  0486  2C88               u1951:
  4631  0487                     	goto	l2120
  4632  0487  2C98               u1950:
  4633  0488                     	line	26
  4634                           	
  4635                           l2114:	
  4636  0488                     		incf	((___flmul@bexp)),w
  4637  0488  0A63               	btfss	status,2
  4638  0489  1D03               	goto	u1961
  4639  048A  2C8C               	goto	u1960
  4640  048B  2C8D               u1961:
  4641  048C                     	goto	l2118
  4642  048C  2C96               u1960:
  4643  048D                     	line	28
  4644                           	
  4645                           l2116:	
  4646  048D                     	movlw	0x0
  4647  048D  3000               	movwf	(___flmul@b+3)
  4648  048E  00D3               	movlw	0x0
  4649  048F  3000               	movwf	(___flmul@b+2)
  4650  0490  00D2               	movlw	0x0
  4651  0491  3000               	movwf	(___flmul@b+1)
  4652  0492  00D1               	movlw	0x0
  4653  0493  3000               	movwf	(___flmul@b)
  4654  0494  00D0               
  4655                           	goto	l2118
  4656  0495  2C96               	line	29
  4657                           	
  4658                           l841:	
  4659  0496                     	line	31
  4660                           	
  4661                           l2118:	
  4662  0496                     	bsf	(___flmul@b)+(23/8),(23)&7
  4663  0496  17D2               	line	33
  4664                           	goto	l2122
  4665  0497  2CA1               	line	34
  4666                           	
  4667                           l840:	
  4668  0498                     	line	36
  4669                           	
  4670                           l2120:	
  4671  0498                     	movlw	0x0
  4672  0498  3000               	movwf	(___flmul@b+3)
  4673  0499  00D3               	movlw	0x0
  4674  049A  3000               	movwf	(___flmul@b+2)
  4675  049B  00D2               	movlw	0x0
  4676  049C  3000               	movwf	(___flmul@b+1)
  4677  049D  00D1               	movlw	0x0
  4678  049E  3000               	movwf	(___flmul@b)
  4679  049F  00D0               
  4680                           	goto	l2122
  4681  04A0  2CA1               	line	37
  4682                           	
  4683                           l842:	
  4684  04A1                     	line	39
  4685                           	
  4686                           l2122:	
  4687  04A1                     	movf	0+(___flmul@a)+03h,w
  4688  04A1  0857               	andlw	080h
  4689  04A2  3980               	movwf	(??___flmul+0)+0
  4690  04A3  00D8               	movf	(??___flmul+0)+0,w
  4691  04A4  0858               	xorwf	(___flmul@sign),f
  4692  04A5  06DD               	line	40
  4693                           	
  4694                           l2124:	
  4695  04A6                     	movf	0+(___flmul@a)+03h,w
  4696  04A6  0857               	movwf	(??___flmul+0)+0
  4697  04A7  00D8               	addwf	(??___flmul+0)+0,w
  4698  04A8  0758               	movwf	(??___flmul+1)+0
  4699  04A9  00D9               	movf	(??___flmul+1)+0,w
  4700  04AA  0859               	movwf	(___flmul@aexp)
  4701  04AB  00E2               	line	41
  4702                           	
  4703                           l2126:	
  4704  04AC                     	btfss	0+(___flmul@a)+02h,(7)&7
  4705  04AC  1FD6               	goto	u1971
  4706  04AD  2CAF               	goto	u1970
  4707  04AE  2CB0               u1971:
  4708  04AF                     	goto	l2130
  4709  04AF  2CB2               u1970:
  4710  04B0                     	line	42
  4711                           	
  4712                           l2128:	
  4713  04B0                     	bsf	(___flmul@aexp)+(0/8),(0)&7
  4714  04B0  1462               	goto	l2130
  4715  04B1  2CB2               	line	43
  4716                           	
  4717                           l843:	
  4718  04B2                     	line	45
  4719                           	
  4720                           l2130:	
  4721  04B2                     	movf	((___flmul@aexp)),w
  4722  04B2  0862               	btfsc	status,2
  4723  04B3  1903               	goto	u1981
  4724  04B4  2CB6               	goto	u1980
  4725  04B5  2CB7               u1981:
  4726  04B6                     	goto	l2138
  4727  04B6  2CC7               u1980:
  4728  04B7                     	line	48
  4729                           	
  4730                           l2132:	
  4731  04B7                     		incf	((___flmul@aexp)),w
  4732  04B7  0A62               	btfss	status,2
  4733  04B8  1D03               	goto	u1991
  4734  04B9  2CBB               	goto	u1990
  4735  04BA  2CBC               u1991:
  4736  04BB                     	goto	l2136
  4737  04BB  2CC5               u1990:
  4738  04BC                     	line	50
  4739                           	
  4740                           l2134:	
  4741  04BC                     	movlw	0x0
  4742  04BC  3000               	movwf	(___flmul@a+3)
  4743  04BD  00D7               	movlw	0x0
  4744  04BE  3000               	movwf	(___flmul@a+2)
  4745  04BF  00D6               	movlw	0x0
  4746  04C0  3000               	movwf	(___flmul@a+1)
  4747  04C1  00D5               	movlw	0x0
  4748  04C2  3000               	movwf	(___flmul@a)
  4749  04C3  00D4               
  4750                           	goto	l2136
  4751  04C4  2CC5               	line	51
  4752                           	
  4753                           l845:	
  4754  04C5                     	line	53
  4755                           	
  4756                           l2136:	
  4757  04C5                     	bsf	(___flmul@a)+(23/8),(23)&7
  4758  04C5  17D6               	line	54
  4759                           	goto	l2140
  4760  04C6  2CD0               	line	55
  4761                           	
  4762                           l844:	
  4763  04C7                     	line	57
  4764                           	
  4765                           l2138:	
  4766  04C7                     	movlw	0x0
  4767  04C7  3000               	movwf	(___flmul@a+3)
  4768  04C8  00D7               	movlw	0x0
  4769  04C9  3000               	movwf	(___flmul@a+2)
  4770  04CA  00D6               	movlw	0x0
  4771  04CB  3000               	movwf	(___flmul@a+1)
  4772  04CC  00D5               	movlw	0x0
  4773  04CD  3000               	movwf	(___flmul@a)
  4774  04CE  00D4               
  4775                           	goto	l2140
  4776  04CF  2CD0               	line	58
  4777                           	
  4778                           l846:	
  4779  04D0                     	line	65
  4780                           	
  4781                           l2140:	
  4782  04D0                     	movf	((___flmul@aexp)),w
  4783  04D0  0862               	btfsc	status,2
  4784  04D1  1903               	goto	u2001
  4785  04D2  2CD4               	goto	u2000
  4786  04D3  2CD5               u2001:
  4787  04D4                     	goto	l2144
  4788  04D4  2CDB               u2000:
  4789  04D5                     	
  4790                           l2142:	
  4791  04D5                     	movf	((___flmul@bexp)),w
  4792  04D5  0863               	btfss	status,2
  4793  04D6  1D03               	goto	u2011
  4794  04D7  2CD9               	goto	u2010
  4795  04D8  2CDA               u2011:
  4796  04D9                     	goto	l2148
  4797  04D9  2CE5               u2010:
  4798  04DA                     	goto	l2144
  4799  04DA  2CDB               	
  4800                           l849:	
  4801  04DB                     	line	66
  4802                           	
  4803                           l2144:	
  4804  04DB                     	movlw	0x0
  4805  04DB  3000               	movwf	(?___flmul+3)
  4806  04DC  00D3               	movlw	0x0
  4807  04DD  3000               	movwf	(?___flmul+2)
  4808  04DE  00D2               	movlw	0x0
  4809  04DF  3000               	movwf	(?___flmul+1)
  4810  04E0  00D1               	movlw	0x0
  4811  04E1  3000               	movwf	(?___flmul)
  4812  04E2  00D0               
  4813                           	goto	l850
  4814  04E3  2FE4               	
  4815                           l2146:	
  4816  04E4                     	goto	l850
  4817  04E4  2FE4               	line	67
  4818                           	
  4819                           l847:	
  4820  04E5                     	line	119
  4821                           	
  4822                           l2148:	
  4823  04E5                     	movf	(___flmul@b),w
  4824  04E5  0850               	movwf	(??___flmul+0)+0
  4825  04E6  00D8               	movf	(??___flmul+0)+0,w
  4826  04E7  0858               	movwf	(__Umul8_16@multiplicand)
  4827  04E8  00F0               	movf	0+(___flmul@a)+02h,w
  4828  04E9  0856               	fcall	__Umul8_16
  4829  04EA  120A  158A  21D7  120A  118A  	movf	(1+(?__Umul8_16)),w
  4830  04EF  0871               	bcf	status, 5	;RP0=0, select bank0
  4831  04F0  1283               	bcf	status, 6	;RP1=0, select bank0
  4832  04F1  1303               	movwf	(___flmul@temp+1)
  4833  04F2  00E9               	movf	(0+(?__Umul8_16)),w
  4834  04F3  0870               	movwf	(___flmul@temp)
  4835  04F4  00E8               	line	120
  4836                           	
  4837                           l2150:	
  4838  04F5                     	movf	(___flmul@temp),w
  4839  04F5  0868               	movwf	(??___flmul+0)+0
  4840  04F6  00D8               	clrf	(??___flmul+0)+0+1
  4841  04F7  01D9               	clrf	(??___flmul+0)+0+2
  4842  04F8  01DA               	clrf	(??___flmul+0)+0+3
  4843  04F9  01DB               	movf	3+(??___flmul+0)+0,w
  4844  04FA  085B               	movwf	(___flmul@grs+3)
  4845  04FB  00E1               	movf	2+(??___flmul+0)+0,w
  4846  04FC  085A               	movwf	(___flmul@grs+2)
  4847  04FD  00E0               	movf	1+(??___flmul+0)+0,w
  4848  04FE  0859               	movwf	(___flmul@grs+1)
  4849  04FF  00DF               	movf	0+(??___flmul+0)+0,w
  4850  0500  0858               	movwf	(___flmul@grs)
  4851  0501  00DE               
  4852                           	line	121
  4853                           	
  4854                           l2152:	
  4855  0502                     	movf	0+(___flmul@temp)+01h,w
  4856  0502  0869               	movwf	(??___flmul+0)+0
  4857  0503  00D8               	clrf	(??___flmul+0)+0+1
  4858  0504  01D9               	clrf	(??___flmul+0)+0+2
  4859  0505  01DA               	clrf	(??___flmul+0)+0+3
  4860  0506  01DB               	movf	3+(??___flmul+0)+0,w
  4861  0507  085B               	movwf	(___flmul@prod+3)
  4862  0508  00E7               	movf	2+(??___flmul+0)+0,w
  4863  0509  085A               	movwf	(___flmul@prod+2)
  4864  050A  00E6               	movf	1+(??___flmul+0)+0,w
  4865  050B  0859               	movwf	(___flmul@prod+1)
  4866  050C  00E5               	movf	0+(??___flmul+0)+0,w
  4867  050D  0858               	movwf	(___flmul@prod)
  4868  050E  00E4               
  4869                           	line	122
  4870                           	movf	0+(___flmul@b)+01h,w
  4871  050F  0851               	movwf	(??___flmul+0)+0
  4872  0510  00D8               	movf	(??___flmul+0)+0,w
  4873  0511  0858               	movwf	(__Umul8_16@multiplicand)
  4874  0512  00F0               	movf	0+(___flmul@a)+01h,w
  4875  0513  0855               	fcall	__Umul8_16
  4876  0514  120A  158A  21D7  120A  118A  	movf	(1+(?__Umul8_16)),w
  4877  0519  0871               	bcf	status, 5	;RP0=0, select bank0
  4878  051A  1283               	bcf	status, 6	;RP1=0, select bank0
  4879  051B  1303               	movwf	(___flmul@temp+1)
  4880  051C  00E9               	movf	(0+(?__Umul8_16)),w
  4881  051D  0870               	movwf	(___flmul@temp)
  4882  051E  00E8               	line	123
  4883                           	
  4884                           l2154:	
  4885  051F                     	movf	(___flmul@temp),w
  4886  051F  0868               	movwf	(??___flmul+0)+0
  4887  0520  00D8               	clrf	(??___flmul+0)+0+1
  4888  0521  01D9               	clrf	(??___flmul+0)+0+2
  4889  0522  01DA               	clrf	(??___flmul+0)+0+3
  4890  0523  01DB               	movf	0+(??___flmul+0)+0,w
  4891  0524  0858               	addwf	(___flmul@grs),f
  4892  0525  07DE               	movf	1+(??___flmul+0)+0,w
  4893  0526  0859               	clrz
  4894  0527  1103               	skipnc
  4895  0528  1803               	addlw	1
  4896  0529  3E01               	skipnz
  4897  052A  1903               	goto	u2021
  4898  052B  2D2D               	addwf	(___flmul@grs+1),f
  4899  052C  07DF               u2021:
  4900  052D                     	movf	2+(??___flmul+0)+0,w
  4901  052D  085A               	clrz
  4902  052E  1103               	skipnc
  4903  052F  1803               	addlw	1
  4904  0530  3E01               	skipnz
  4905  0531  1903               	goto	u2022
  4906  0532  2D34               	addwf	(___flmul@grs+2),f
  4907  0533  07E0               u2022:
  4908  0534                     	movf	3+(??___flmul+0)+0,w
  4909  0534  085B               	clrz
  4910  0535  1103               	skipnc
  4911  0536  1803               	addlw	1
  4912  0537  3E01               	skipnz
  4913  0538  1903               	goto	u2023
  4914  0539  2D3B               	addwf	(___flmul@grs+3),f
  4915  053A  07E1               u2023:
  4916  053B                     
  4917                           	line	124
  4918                           	
  4919                           l2156:	
  4920  053B                     	movf	0+(___flmul@temp)+01h,w
  4921  053B  0869               	movwf	(??___flmul+0)+0
  4922  053C  00D8               	clrf	(??___flmul+0)+0+1
  4923  053D  01D9               	clrf	(??___flmul+0)+0+2
  4924  053E  01DA               	clrf	(??___flmul+0)+0+3
  4925  053F  01DB               	movf	0+(??___flmul+0)+0,w
  4926  0540  0858               	addwf	(___flmul@prod),f
  4927  0541  07E4               	movf	1+(??___flmul+0)+0,w
  4928  0542  0859               	clrz
  4929  0543  1103               	skipnc
  4930  0544  1803               	addlw	1
  4931  0545  3E01               	skipnz
  4932  0546  1903               	goto	u2031
  4933  0547  2D49               	addwf	(___flmul@prod+1),f
  4934  0548  07E5               u2031:
  4935  0549                     	movf	2+(??___flmul+0)+0,w
  4936  0549  085A               	clrz
  4937  054A  1103               	skipnc
  4938  054B  1803               	addlw	1
  4939  054C  3E01               	skipnz
  4940  054D  1903               	goto	u2032
  4941  054E  2D50               	addwf	(___flmul@prod+2),f
  4942  054F  07E6               u2032:
  4943  0550                     	movf	3+(??___flmul+0)+0,w
  4944  0550  085B               	clrz
  4945  0551  1103               	skipnc
  4946  0552  1803               	addlw	1
  4947  0553  3E01               	skipnz
  4948  0554  1903               	goto	u2033
  4949  0555  2D57               	addwf	(___flmul@prod+3),f
  4950  0556  07E7               u2033:
  4951  0557                     
  4952                           	line	125
  4953                           	movf	0+(___flmul@b)+02h,w
  4954  0557  0852               	movwf	(??___flmul+0)+0
  4955  0558  00D8               	movf	(??___flmul+0)+0,w
  4956  0559  0858               	movwf	(__Umul8_16@multiplicand)
  4957  055A  00F0               	movf	(___flmul@a),w
  4958  055B  0854               	fcall	__Umul8_16
  4959  055C  120A  158A  21D7  120A  118A  	movf	(1+(?__Umul8_16)),w
  4960  0561  0871               	bcf	status, 5	;RP0=0, select bank0
  4961  0562  1283               	bcf	status, 6	;RP1=0, select bank0
  4962  0563  1303               	movwf	(___flmul@temp+1)
  4963  0564  00E9               	movf	(0+(?__Umul8_16)),w
  4964  0565  0870               	movwf	(___flmul@temp)
  4965  0566  00E8               	line	126
  4966                           	
  4967                           l2158:	
  4968  0567                     	movf	(___flmul@temp),w
  4969  0567  0868               	movwf	(??___flmul+0)+0
  4970  0568  00D8               	clrf	(??___flmul+0)+0+1
  4971  0569  01D9               	clrf	(??___flmul+0)+0+2
  4972  056A  01DA               	clrf	(??___flmul+0)+0+3
  4973  056B  01DB               	movf	0+(??___flmul+0)+0,w
  4974  056C  0858               	addwf	(___flmul@grs),f
  4975  056D  07DE               	movf	1+(??___flmul+0)+0,w
  4976  056E  0859               	clrz
  4977  056F  1103               	skipnc
  4978  0570  1803               	addlw	1
  4979  0571  3E01               	skipnz
  4980  0572  1903               	goto	u2041
  4981  0573  2D75               	addwf	(___flmul@grs+1),f
  4982  0574  07DF               u2041:
  4983  0575                     	movf	2+(??___flmul+0)+0,w
  4984  0575  085A               	clrz
  4985  0576  1103               	skipnc
  4986  0577  1803               	addlw	1
  4987  0578  3E01               	skipnz
  4988  0579  1903               	goto	u2042
  4989  057A  2D7C               	addwf	(___flmul@grs+2),f
  4990  057B  07E0               u2042:
  4991  057C                     	movf	3+(??___flmul+0)+0,w
  4992  057C  085B               	clrz
  4993  057D  1103               	skipnc
  4994  057E  1803               	addlw	1
  4995  057F  3E01               	skipnz
  4996  0580  1903               	goto	u2043
  4997  0581  2D83               	addwf	(___flmul@grs+3),f
  4998  0582  07E1               u2043:
  4999  0583                     
  5000                           	line	127
  5001                           	
  5002                           l2160:	
  5003  0583                     	movf	0+(___flmul@temp)+01h,w
  5004  0583  0869               	movwf	(??___flmul+0)+0
  5005  0584  00D8               	clrf	(??___flmul+0)+0+1
  5006  0585  01D9               	clrf	(??___flmul+0)+0+2
  5007  0586  01DA               	clrf	(??___flmul+0)+0+3
  5008  0587  01DB               	movf	0+(??___flmul+0)+0,w
  5009  0588  0858               	addwf	(___flmul@prod),f
  5010  0589  07E4               	movf	1+(??___flmul+0)+0,w
  5011  058A  0859               	clrz
  5012  058B  1103               	skipnc
  5013  058C  1803               	addlw	1
  5014  058D  3E01               	skipnz
  5015  058E  1903               	goto	u2051
  5016  058F  2D91               	addwf	(___flmul@prod+1),f
  5017  0590  07E5               u2051:
  5018  0591                     	movf	2+(??___flmul+0)+0,w
  5019  0591  085A               	clrz
  5020  0592  1103               	skipnc
  5021  0593  1803               	addlw	1
  5022  0594  3E01               	skipnz
  5023  0595  1903               	goto	u2052
  5024  0596  2D98               	addwf	(___flmul@prod+2),f
  5025  0597  07E6               u2052:
  5026  0598                     	movf	3+(??___flmul+0)+0,w
  5027  0598  085B               	clrz
  5028  0599  1103               	skipnc
  5029  059A  1803               	addlw	1
  5030  059B  3E01               	skipnz
  5031  059C  1903               	goto	u2053
  5032  059D  2D9F               	addwf	(___flmul@prod+3),f
  5033  059E  07E7               u2053:
  5034  059F                     
  5035                           	line	128
  5036                           	
  5037                           l2162:	
  5038  059F                     	movlw	08h
  5039  059F  3008               	movwf	(??___flmul+0)+0
  5040  05A0  00D8               u2065:
  5041  05A1                     	clrc
  5042  05A1  1003               	rlf	(___flmul@grs),f
  5043  05A2  0DDE               	rlf	(___flmul@grs+1),f
  5044  05A3  0DDF               	rlf	(___flmul@grs+2),f
  5045  05A4  0DE0               	rlf	(___flmul@grs+3),f
  5046  05A5  0DE1               	decfsz	(??___flmul+0)+0
  5047  05A6  0BD8               	goto	u2065
  5048  05A7  2DA1               	line	129
  5049                           	
  5050                           l2164:	
  5051  05A8                     	movf	0+(___flmul@b)+01h,w
  5052  05A8  0851               	movwf	(??___flmul+0)+0
  5053  05A9  00D8               	movf	(??___flmul+0)+0,w
  5054  05AA  0858               	movwf	(__Umul8_16@multiplicand)
  5055  05AB  00F0               	movf	(___flmul@a),w
  5056  05AC  0854               	fcall	__Umul8_16
  5057  05AD  120A  158A  21D7  120A  118A  	movf	(1+(?__Umul8_16)),w
  5058  05B2  0871               	bcf	status, 5	;RP0=0, select bank0
  5059  05B3  1283               	bcf	status, 6	;RP1=0, select bank0
  5060  05B4  1303               	movwf	(___flmul@temp+1)
  5061  05B5  00E9               	movf	(0+(?__Umul8_16)),w
  5062  05B6  0870               	movwf	(___flmul@temp)
  5063  05B7  00E8               	line	130
  5064                           	
  5065                           l2166:	
  5066  05B8                     	movf	(___flmul@temp),w
  5067  05B8  0868               	movwf	((??___flmul+0)+0)
  5068  05B9  00D8               	movf	(___flmul@temp+1),w
  5069  05BA  0869               	movwf	((??___flmul+0)+0+1)
  5070  05BB  00D9               	clrf	((??___flmul+0)+0+2)
  5071  05BC  01DA               	clrf	((??___flmul+0)+0+3)
  5072  05BD  01DB               	movf	0+(??___flmul+0)+0,w
  5073  05BE  0858               	addwf	(___flmul@grs),f
  5074  05BF  07DE               	movf	1+(??___flmul+0)+0,w
  5075  05C0  0859               	clrz
  5076  05C1  1103               	skipnc
  5077  05C2  1803               	addlw	1
  5078  05C3  3E01               	skipnz
  5079  05C4  1903               	goto	u2071
  5080  05C5  2DC7               	addwf	(___flmul@grs+1),f
  5081  05C6  07DF               u2071:
  5082  05C7                     	movf	2+(??___flmul+0)+0,w
  5083  05C7  085A               	clrz
  5084  05C8  1103               	skipnc
  5085  05C9  1803               	addlw	1
  5086  05CA  3E01               	skipnz
  5087  05CB  1903               	goto	u2072
  5088  05CC  2DCE               	addwf	(___flmul@grs+2),f
  5089  05CD  07E0               u2072:
  5090  05CE                     	movf	3+(??___flmul+0)+0,w
  5091  05CE  085B               	clrz
  5092  05CF  1103               	skipnc
  5093  05D0  1803               	addlw	1
  5094  05D1  3E01               	skipnz
  5095  05D2  1903               	goto	u2073
  5096  05D3  2DD5               	addwf	(___flmul@grs+3),f
  5097  05D4  07E1               u2073:
  5098  05D5                     
  5099                           	line	131
  5100                           	
  5101                           l2168:	
  5102  05D5                     	movf	(___flmul@b),w
  5103  05D5  0850               	movwf	(??___flmul+0)+0
  5104  05D6  00D8               	movf	(??___flmul+0)+0,w
  5105  05D7  0858               	movwf	(__Umul8_16@multiplicand)
  5106  05D8  00F0               	movf	0+(___flmul@a)+01h,w
  5107  05D9  0855               	fcall	__Umul8_16
  5108  05DA  120A  158A  21D7  120A  118A  	movf	(1+(?__Umul8_16)),w
  5109  05DF  0871               	bcf	status, 5	;RP0=0, select bank0
  5110  05E0  1283               	bcf	status, 6	;RP1=0, select bank0
  5111  05E1  1303               	movwf	(___flmul@temp+1)
  5112  05E2  00E9               	movf	(0+(?__Umul8_16)),w
  5113  05E3  0870               	movwf	(___flmul@temp)
  5114  05E4  00E8               	line	132
  5115                           	
  5116                           l2170:	
  5117  05E5                     	movf	(___flmul@temp),w
  5118  05E5  0868               	movwf	((??___flmul+0)+0)
  5119  05E6  00D8               	movf	(___flmul@temp+1),w
  5120  05E7  0869               	movwf	((??___flmul+0)+0+1)
  5121  05E8  00D9               	clrf	((??___flmul+0)+0+2)
  5122  05E9  01DA               	clrf	((??___flmul+0)+0+3)
  5123  05EA  01DB               	movf	0+(??___flmul+0)+0,w
  5124  05EB  0858               	addwf	(___flmul@grs),f
  5125  05EC  07DE               	movf	1+(??___flmul+0)+0,w
  5126  05ED  0859               	clrz
  5127  05EE  1103               	skipnc
  5128  05EF  1803               	addlw	1
  5129  05F0  3E01               	skipnz
  5130  05F1  1903               	goto	u2081
  5131  05F2  2DF4               	addwf	(___flmul@grs+1),f
  5132  05F3  07DF               u2081:
  5133  05F4                     	movf	2+(??___flmul+0)+0,w
  5134  05F4  085A               	clrz
  5135  05F5  1103               	skipnc
  5136  05F6  1803               	addlw	1
  5137  05F7  3E01               	skipnz
  5138  05F8  1903               	goto	u2082
  5139  05F9  2DFB               	addwf	(___flmul@grs+2),f
  5140  05FA  07E0               u2082:
  5141  05FB                     	movf	3+(??___flmul+0)+0,w
  5142  05FB  085B               	clrz
  5143  05FC  1103               	skipnc
  5144  05FD  1803               	addlw	1
  5145  05FE  3E01               	skipnz
  5146  05FF  1903               	goto	u2083
  5147  0600  2E02               	addwf	(___flmul@grs+3),f
  5148  0601  07E1               u2083:
  5149  0602                     
  5150                           	line	133
  5151                           	
  5152                           l2172:	
  5153  0602                     	movlw	08h
  5154  0602  3008               	movwf	(??___flmul+0)+0
  5155  0603  00D8               u2095:
  5156  0604                     	clrc
  5157  0604  1003               	rlf	(___flmul@grs),f
  5158  0605  0DDE               	rlf	(___flmul@grs+1),f
  5159  0606  0DDF               	rlf	(___flmul@grs+2),f
  5160  0607  0DE0               	rlf	(___flmul@grs+3),f
  5161  0608  0DE1               	decfsz	(??___flmul+0)+0
  5162  0609  0BD8               	goto	u2095
  5163  060A  2E04               	line	134
  5164                           	movf	(___flmul@b),w
  5165  060B  0850               	movwf	(??___flmul+0)+0
  5166  060C  00D8               	movf	(??___flmul+0)+0,w
  5167  060D  0858               	movwf	(__Umul8_16@multiplicand)
  5168  060E  00F0               	movf	(___flmul@a),w
  5169  060F  0854               	fcall	__Umul8_16
  5170  0610  120A  158A  21D7  120A  118A  	movf	(1+(?__Umul8_16)),w
  5171  0615  0871               	bcf	status, 5	;RP0=0, select bank0
  5172  0616  1283               	bcf	status, 6	;RP1=0, select bank0
  5173  0617  1303               	movwf	(___flmul@temp+1)
  5174  0618  00E9               	movf	(0+(?__Umul8_16)),w
  5175  0619  0870               	movwf	(___flmul@temp)
  5176  061A  00E8               	line	135
  5177                           	
  5178                           l2174:	
  5179  061B                     	movf	(___flmul@temp),w
  5180  061B  0868               	movwf	((??___flmul+0)+0)
  5181  061C  00D8               	movf	(___flmul@temp+1),w
  5182  061D  0869               	movwf	((??___flmul+0)+0+1)
  5183  061E  00D9               	clrf	((??___flmul+0)+0+2)
  5184  061F  01DA               	clrf	((??___flmul+0)+0+3)
  5185  0620  01DB               	movf	0+(??___flmul+0)+0,w
  5186  0621  0858               	addwf	(___flmul@grs),f
  5187  0622  07DE               	movf	1+(??___flmul+0)+0,w
  5188  0623  0859               	clrz
  5189  0624  1103               	skipnc
  5190  0625  1803               	addlw	1
  5191  0626  3E01               	skipnz
  5192  0627  1903               	goto	u2101
  5193  0628  2E2A               	addwf	(___flmul@grs+1),f
  5194  0629  07DF               u2101:
  5195  062A                     	movf	2+(??___flmul+0)+0,w
  5196  062A  085A               	clrz
  5197  062B  1103               	skipnc
  5198  062C  1803               	addlw	1
  5199  062D  3E01               	skipnz
  5200  062E  1903               	goto	u2102
  5201  062F  2E31               	addwf	(___flmul@grs+2),f
  5202  0630  07E0               u2102:
  5203  0631                     	movf	3+(??___flmul+0)+0,w
  5204  0631  085B               	clrz
  5205  0632  1103               	skipnc
  5206  0633  1803               	addlw	1
  5207  0634  3E01               	skipnz
  5208  0635  1903               	goto	u2103
  5209  0636  2E38               	addwf	(___flmul@grs+3),f
  5210  0637  07E1               u2103:
  5211  0638                     
  5212                           	line	136
  5213                           	
  5214                           l2176:	
  5215  0638                     	movf	0+(___flmul@b)+01h,w
  5216  0638  0851               	movwf	(??___flmul+0)+0
  5217  0639  00D8               	movf	(??___flmul+0)+0,w
  5218  063A  0858               	movwf	(__Umul8_16@multiplicand)
  5219  063B  00F0               	movf	0+(___flmul@a)+02h,w
  5220  063C  0856               	fcall	__Umul8_16
  5221  063D  120A  158A  21D7  120A  118A  	movf	(1+(?__Umul8_16)),w
  5222  0642  0871               	bcf	status, 5	;RP0=0, select bank0
  5223  0643  1283               	bcf	status, 6	;RP1=0, select bank0
  5224  0644  1303               	movwf	(___flmul@temp+1)
  5225  0645  00E9               	movf	(0+(?__Umul8_16)),w
  5226  0646  0870               	movwf	(___flmul@temp)
  5227  0647  00E8               	line	137
  5228                           	movf	(___flmul@temp),w
  5229  0648  0868               	movwf	((??___flmul+0)+0)
  5230  0649  00D8               	movf	(___flmul@temp+1),w
  5231  064A  0869               	movwf	((??___flmul+0)+0+1)
  5232  064B  00D9               	clrf	((??___flmul+0)+0+2)
  5233  064C  01DA               	clrf	((??___flmul+0)+0+3)
  5234  064D  01DB               	movf	0+(??___flmul+0)+0,w
  5235  064E  0858               	addwf	(___flmul@prod),f
  5236  064F  07E4               	movf	1+(??___flmul+0)+0,w
  5237  0650  0859               	clrz
  5238  0651  1103               	skipnc
  5239  0652  1803               	addlw	1
  5240  0653  3E01               	skipnz
  5241  0654  1903               	goto	u2111
  5242  0655  2E57               	addwf	(___flmul@prod+1),f
  5243  0656  07E5               u2111:
  5244  0657                     	movf	2+(??___flmul+0)+0,w
  5245  0657  085A               	clrz
  5246  0658  1103               	skipnc
  5247  0659  1803               	addlw	1
  5248  065A  3E01               	skipnz
  5249  065B  1903               	goto	u2112
  5250  065C  2E5E               	addwf	(___flmul@prod+2),f
  5251  065D  07E6               u2112:
  5252  065E                     	movf	3+(??___flmul+0)+0,w
  5253  065E  085B               	clrz
  5254  065F  1103               	skipnc
  5255  0660  1803               	addlw	1
  5256  0661  3E01               	skipnz
  5257  0662  1903               	goto	u2113
  5258  0663  2E65               	addwf	(___flmul@prod+3),f
  5259  0664  07E7               u2113:
  5260  0665                     
  5261                           	line	138
  5262                           	
  5263                           l2178:	
  5264  0665                     	movf	0+(___flmul@b)+02h,w
  5265  0665  0852               	movwf	(??___flmul+0)+0
  5266  0666  00D8               	movf	(??___flmul+0)+0,w
  5267  0667  0858               	movwf	(__Umul8_16@multiplicand)
  5268  0668  00F0               	movf	0+(___flmul@a)+01h,w
  5269  0669  0855               	fcall	__Umul8_16
  5270  066A  120A  158A  21D7  120A  118A  	movf	(1+(?__Umul8_16)),w
  5271  066F  0871               	bcf	status, 5	;RP0=0, select bank0
  5272  0670  1283               	bcf	status, 6	;RP1=0, select bank0
  5273  0671  1303               	movwf	(___flmul@temp+1)
  5274  0672  00E9               	movf	(0+(?__Umul8_16)),w
  5275  0673  0870               	movwf	(___flmul@temp)
  5276  0674  00E8               	line	139
  5277                           	
  5278                           l2180:	
  5279  0675                     	movf	(___flmul@temp),w
  5280  0675  0868               	movwf	((??___flmul+0)+0)
  5281  0676  00D8               	movf	(___flmul@temp+1),w
  5282  0677  0869               	movwf	((??___flmul+0)+0+1)
  5283  0678  00D9               	clrf	((??___flmul+0)+0+2)
  5284  0679  01DA               	clrf	((??___flmul+0)+0+3)
  5285  067A  01DB               	movf	0+(??___flmul+0)+0,w
  5286  067B  0858               	addwf	(___flmul@prod),f
  5287  067C  07E4               	movf	1+(??___flmul+0)+0,w
  5288  067D  0859               	clrz
  5289  067E  1103               	skipnc
  5290  067F  1803               	addlw	1
  5291  0680  3E01               	skipnz
  5292  0681  1903               	goto	u2121
  5293  0682  2E84               	addwf	(___flmul@prod+1),f
  5294  0683  07E5               u2121:
  5295  0684                     	movf	2+(??___flmul+0)+0,w
  5296  0684  085A               	clrz
  5297  0685  1103               	skipnc
  5298  0686  1803               	addlw	1
  5299  0687  3E01               	skipnz
  5300  0688  1903               	goto	u2122
  5301  0689  2E8B               	addwf	(___flmul@prod+2),f
  5302  068A  07E6               u2122:
  5303  068B                     	movf	3+(??___flmul+0)+0,w
  5304  068B  085B               	clrz
  5305  068C  1103               	skipnc
  5306  068D  1803               	addlw	1
  5307  068E  3E01               	skipnz
  5308  068F  1903               	goto	u2123
  5309  0690  2E92               	addwf	(___flmul@prod+3),f
  5310  0691  07E7               u2123:
  5311  0692                     
  5312                           	line	140
  5313                           	movf	0+(___flmul@b)+02h,w
  5314  0692  0852               	movwf	(??___flmul+0)+0
  5315  0693  00D8               	movf	(??___flmul+0)+0,w
  5316  0694  0858               	movwf	(__Umul8_16@multiplicand)
  5317  0695  00F0               	movf	0+(___flmul@a)+02h,w
  5318  0696  0856               	fcall	__Umul8_16
  5319  0697  120A  158A  21D7  120A  118A  	movf	(1+(?__Umul8_16)),w
  5320  069C  0871               	bcf	status, 5	;RP0=0, select bank0
  5321  069D  1283               	bcf	status, 6	;RP1=0, select bank0
  5322  069E  1303               	movwf	(___flmul@temp+1)
  5323  069F  00E9               	movf	(0+(?__Umul8_16)),w
  5324  06A0  0870               	movwf	(___flmul@temp)
  5325  06A1  00E8               	line	141
  5326                           	
  5327                           l2182:	
  5328  06A2                     	movf	(___flmul@temp),w
  5329  06A2  0868               	movwf	((??___flmul+0)+0)
  5330  06A3  00D8               	movf	(___flmul@temp+1),w
  5331  06A4  0869               	movwf	((??___flmul+0)+0+1)
  5332  06A5  00D9               	clrf	((??___flmul+0)+0+2)
  5333  06A6  01DA               	clrf	((??___flmul+0)+0+3)
  5334  06A7  01DB               	movlw	08h
  5335  06A8  3008               u2135:
  5336  06A9                     	clrc
  5337  06A9  1003               	rlf	(??___flmul+0)+0,f
  5338  06AA  0DD8               	rlf	(??___flmul+0)+1,f
  5339  06AB  0DD9               	rlf	(??___flmul+0)+2,f
  5340  06AC  0DDA               	rlf	(??___flmul+0)+3,f
  5341  06AD  0DDB               u2130:
  5342  06AE                     	addlw	-1
  5343  06AE  3EFF               	skipz
  5344  06AF  1D03               	goto	u2135
  5345  06B0  2EA9               	movf	0+(??___flmul+0)+0,w
  5346  06B1  0858               	addwf	(___flmul@prod),f
  5347  06B2  07E4               	movf	1+(??___flmul+0)+0,w
  5348  06B3  0859               	clrz
  5349  06B4  1103               	skipnc
  5350  06B5  1803               	addlw	1
  5351  06B6  3E01               	skipnz
  5352  06B7  1903               	goto	u2141
  5353  06B8  2EBA               	addwf	(___flmul@prod+1),f
  5354  06B9  07E5               u2141:
  5355  06BA                     	movf	2+(??___flmul+0)+0,w
  5356  06BA  085A               	clrz
  5357  06BB  1103               	skipnc
  5358  06BC  1803               	addlw	1
  5359  06BD  3E01               	skipnz
  5360  06BE  1903               	goto	u2142
  5361  06BF  2EC1               	addwf	(___flmul@prod+2),f
  5362  06C0  07E6               u2142:
  5363  06C1                     	movf	3+(??___flmul+0)+0,w
  5364  06C1  085B               	clrz
  5365  06C2  1103               	skipnc
  5366  06C3  1803               	addlw	1
  5367  06C4  3E01               	skipnz
  5368  06C5  1903               	goto	u2143
  5369  06C6  2EC8               	addwf	(___flmul@prod+3),f
  5370  06C7  07E7               u2143:
  5371  06C8                     
  5372                           	line	145
  5373                           	
  5374                           l2184:	
  5375  06C8                     	movf	(___flmul@grs),w
  5376  06C8  085E               	movwf	(??___flmul+0)+0
  5377  06C9  00D8               	movf	(___flmul@grs+1),w
  5378  06CA  085F               	movwf	((??___flmul+0)+0+1)
  5379  06CB  00D9               	movf	(___flmul@grs+2),w
  5380  06CC  0860               	movwf	((??___flmul+0)+0+2)
  5381  06CD  00DA               	movf	(___flmul@grs+3),w
  5382  06CE  0861               	movwf	((??___flmul+0)+0+3)
  5383  06CF  00DB               	movlw	018h
  5384  06D0  3018               u2155:
  5385  06D1                     	clrc
  5386  06D1  1003               	rrf	(??___flmul+0)+3,f
  5387  06D2  0CDB               	rrf	(??___flmul+0)+2,f
  5388  06D3  0CDA               	rrf	(??___flmul+0)+1,f
  5389  06D4  0CD9               	rrf	(??___flmul+0)+0,f
  5390  06D5  0CD8               u2150:
  5391  06D6                     	addlw	-1
  5392  06D6  3EFF               	skipz
  5393  06D7  1D03               	goto	u2155
  5394  06D8  2ED1               	movf	0+(??___flmul+0)+0,w
  5395  06D9  0858               	addwf	(___flmul@prod),f
  5396  06DA  07E4               	movf	1+(??___flmul+0)+0,w
  5397  06DB  0859               	clrz
  5398  06DC  1103               	skipnc
  5399  06DD  1803               	addlw	1
  5400  06DE  3E01               	skipnz
  5401  06DF  1903               	goto	u2161
  5402  06E0  2EE2               	addwf	(___flmul@prod+1),f
  5403  06E1  07E5               u2161:
  5404  06E2                     	movf	2+(??___flmul+0)+0,w
  5405  06E2  085A               	clrz
  5406  06E3  1103               	skipnc
  5407  06E4  1803               	addlw	1
  5408  06E5  3E01               	skipnz
  5409  06E6  1903               	goto	u2162
  5410  06E7  2EE9               	addwf	(___flmul@prod+2),f
  5411  06E8  07E6               u2162:
  5412  06E9                     	movf	3+(??___flmul+0)+0,w
  5413  06E9  085B               	clrz
  5414  06EA  1103               	skipnc
  5415  06EB  1803               	addlw	1
  5416  06EC  3E01               	skipnz
  5417  06ED  1903               	goto	u2163
  5418  06EE  2EF0               	addwf	(___flmul@prod+3),f
  5419  06EF  07E7               u2163:
  5420  06F0                     
  5421                           	line	146
  5422                           	
  5423                           l2186:	
  5424  06F0                     	movlw	08h
  5425  06F0  3008               	movwf	(??___flmul+0)+0
  5426  06F1  00D8               u2175:
  5427  06F2                     	clrc
  5428  06F2  1003               	rlf	(___flmul@grs),f
  5429  06F3  0DDE               	rlf	(___flmul@grs+1),f
  5430  06F4  0DDF               	rlf	(___flmul@grs+2),f
  5431  06F5  0DE0               	rlf	(___flmul@grs+3),f
  5432  06F6  0DE1               	decfsz	(??___flmul+0)+0
  5433  06F7  0BD8               	goto	u2175
  5434  06F8  2EF2               	line	149
  5435                           	
  5436                           l2188:	
  5437  06F9                     	movf	(___flmul@bexp),w
  5438  06F9  0863               	addwf	(___flmul@aexp),w
  5439  06FA  0762               	movwf	(??___flmul+0)+0
  5440  06FB  00D8               	clrf	(??___flmul+0)+0+1
  5441  06FC  01D9               	rlf	1+(??___flmul+0)+0,f
  5442  06FD  0DD9               	
  5443                           	movf	0+(??___flmul+0)+0,w
  5444  06FE  0858               	addlw	low(-126)
  5445  06FF  3E82               	movwf	(___flmul@temp)
  5446  0700  00E8               	movf	1+(??___flmul+0)+0,w
  5447  0701  0859               	skipnc
  5448  0702  1803               	addlw	1
  5449  0703  3E01               	addlw	high(-126)
  5450  0704  3EFF               	movwf	1+(___flmul@temp)
  5451  0705  00E9               	line	152
  5452                           	goto	l2200
  5453  0706  2F26               	
  5454                           l852:	
  5455  0707                     	line	153
  5456                           	
  5457                           l2190:	
  5458  0707                     	movlw	01h
  5459  0707  3001               	movwf	(??___flmul+0)+0
  5460  0708  00D8               u2185:
  5461  0709                     	clrc
  5462  0709  1003               	rlf	(___flmul@prod),f
  5463  070A  0DE4               	rlf	(___flmul@prod+1),f
  5464  070B  0DE5               	rlf	(___flmul@prod+2),f
  5465  070C  0DE6               	rlf	(___flmul@prod+3),f
  5466  070D  0DE7               	decfsz	(??___flmul+0)+0
  5467  070E  0BD8               	goto	u2185
  5468  070F  2F09               	line	154
  5469                           	
  5470                           l2192:	
  5471  0710                     	btfss	(___flmul@grs+3),(31)&7
  5472  0710  1FE1               	goto	u2191
  5473  0711  2F13               	goto	u2190
  5474  0712  2F14               u2191:
  5475  0713                     	goto	l2196
  5476  0713  2F16               u2190:
  5477  0714                     	line	155
  5478                           	
  5479                           l2194:	
  5480  0714                     	bsf	(___flmul@prod)+(0/8),(0)&7
  5481  0714  1464               	goto	l2196
  5482  0715  2F16               	line	156
  5483                           	
  5484                           l853:	
  5485  0716                     	line	157
  5486                           	
  5487                           l2196:	
  5488  0716                     	movlw	01h
  5489  0716  3001               	movwf	(??___flmul+0)+0
  5490  0717  00D8               u2205:
  5491  0718                     	clrc
  5492  0718  1003               	rlf	(___flmul@grs),f
  5493  0719  0DDE               	rlf	(___flmul@grs+1),f
  5494  071A  0DDF               	rlf	(___flmul@grs+2),f
  5495  071B  0DE0               	rlf	(___flmul@grs+3),f
  5496  071C  0DE1               	decfsz	(??___flmul+0)+0
  5497  071D  0BD8               	goto	u2205
  5498  071E  2F18               	line	158
  5499                           	
  5500                           l2198:	
  5501  071F                     	movlw	0FFh
  5502  071F  30FF               	addwf	(___flmul@temp),f
  5503  0720  07E8               	skipnc
  5504  0721  1803               	incf	(___flmul@temp+1),f
  5505  0722  0AE9               	movlw	0FFh
  5506  0723  30FF               	addwf	(___flmul@temp+1),f
  5507  0724  07E9               	goto	l2200
  5508  0725  2F26               	line	159
  5509                           	
  5510                           l851:	
  5511  0726                     	line	152
  5512                           	
  5513                           l2200:	
  5514  0726                     	btfss	(___flmul@prod+2),(23)&7
  5515  0726  1FE6               	goto	u2211
  5516  0727  2F29               	goto	u2210
  5517  0728  2F2A               u2211:
  5518  0729                     	goto	l2190
  5519  0729  2F07               u2210:
  5520  072A                     	goto	l2202
  5521  072A  2F2B               	
  5522                           l854:	
  5523  072B                     	line	163
  5524                           	
  5525                           l2202:	
  5526  072B                     	clrf	(___flmul@aexp)
  5527  072B  01E2               	line	164
  5528                           	
  5529                           l2204:	
  5530  072C                     	btfss	(___flmul@grs+3),(31)&7
  5531  072C  1FE1               	goto	u2221
  5532  072D  2F2F               	goto	u2220
  5533  072E  2F30               u2221:
  5534  072F                     	goto	l2212
  5535  072F  2F50               u2220:
  5536  0730                     	line	165
  5537                           	
  5538                           l2206:	
  5539  0730                     	movlw	0FFh
  5540  0730  30FF               	andwf	(___flmul@grs),w
  5541  0731  055E               	movwf	(??___flmul+0)+0
  5542  0732  00D8               	movlw	0FFh
  5543  0733  30FF               	andwf	(___flmul@grs+1),w
  5544  0734  055F               	movwf	((??___flmul+0)+0+1)
  5545  0735  00D9               	movlw	0FFh
  5546  0736  30FF               	andwf	(___flmul@grs+2),w
  5547  0737  0560               	movwf	((??___flmul+0)+0+2)
  5548  0738  00DA               	movlw	07Fh
  5549  0739  307F               	andwf	(___flmul@grs+3),w
  5550  073A  0561               	movwf	((??___flmul+0)+0+3)
  5551  073B  00DB               	movf	3+(??___flmul+0)+0,w
  5552  073C  085B               	iorwf	2+(??___flmul+0)+0,w
  5553  073D  045A               	iorwf	1+(??___flmul+0)+0,w
  5554  073E  0459               	iorwf	0+(??___flmul+0)+0,w
  5555  073F  0458               	skipnz
  5556  0740  1903               	goto	u2231
  5557  0741  2F43               	goto	u2230
  5558  0742  2F44               u2231:
  5559  0743                     	goto	l856
  5560  0743  2F47               u2230:
  5561  0744                     	line	166
  5562                           	
  5563                           l2208:	
  5564  0744                     	clrf	(___flmul@aexp)
  5565  0744  01E2               	incf	(___flmul@aexp),f
  5566  0745  0AE2               	line	167
  5567                           	goto	l2212
  5568  0746  2F50               	line	168
  5569                           	
  5570                           l856:	
  5571  0747                     	line	169
  5572                           	btfss	(___flmul@prod),(0)&7
  5573  0747  1C64               	goto	u2241
  5574  0748  2F4A               	goto	u2240
  5575  0749  2F4B               u2241:
  5576  074A                     	goto	l2212
  5577  074A  2F50               u2240:
  5578  074B                     	line	170
  5579                           	
  5580                           l2210:	
  5581  074B                     	clrf	(___flmul@aexp)
  5582  074B  01E2               	incf	(___flmul@aexp),f
  5583  074C  0AE2               	goto	l2212
  5584  074D  2F50               	line	171
  5585                           	
  5586                           l858:	
  5587  074E                     	goto	l2212
  5588  074E  2F50               	line	172
  5589                           	
  5590                           l857:	
  5591  074F                     	goto	l2212
  5592  074F  2F50               	line	173
  5593                           	
  5594                           l855:	
  5595  0750                     	line	174
  5596                           	
  5597                           l2212:	
  5598  0750                     	movf	((___flmul@aexp)),w
  5599  0750  0862               	btfsc	status,2
  5600  0751  1903               	goto	u2251
  5601  0752  2F54               	goto	u2250
  5602  0753  2F55               u2251:
  5603  0754                     	goto	l2222
  5604  0754  2F88               u2250:
  5605  0755                     	line	175
  5606                           	
  5607                           l2214:	
  5608  0755                     	movlw	01h
  5609  0755  3001               	addwf	(___flmul@prod),f
  5610  0756  07E4               	movlw	0
  5611  0757  3000               	skipnc
  5612  0758  1803               movlw 1
  5613  0759  3001               	addwf	(___flmul@prod+1),f
  5614  075A  07E5               	movlw	0
  5615  075B  3000               	skipnc
  5616  075C  1803               movlw 1
  5617  075D  3001               	addwf	(___flmul@prod+2),f
  5618  075E  07E6               	movlw	0
  5619  075F  3000               	skipnc
  5620  0760  1803               movlw 1
  5621  0761  3001               	addwf	(___flmul@prod+3),f
  5622  0762  07E7               	line	176
  5623                           	
  5624                           l2216:	
  5625  0763                     	btfss	(___flmul@prod+3),(24)&7
  5626  0763  1C67               	goto	u2261
  5627  0764  2F66               	goto	u2260
  5628  0765  2F67               u2261:
  5629  0766                     	goto	l2222
  5630  0766  2F88               u2260:
  5631  0767                     	line	177
  5632                           	
  5633                           l2218:	
  5634  0767                     	movf	(___flmul@prod),w
  5635  0767  0864               	movwf	(??___flmul+0)+0
  5636  0768  00D8               	movf	(___flmul@prod+1),w
  5637  0769  0865               	movwf	((??___flmul+0)+0+1)
  5638  076A  00D9               	movf	(___flmul@prod+2),w
  5639  076B  0866               	movwf	((??___flmul+0)+0+2)
  5640  076C  00DA               	movf	(___flmul@prod+3),w
  5641  076D  0867               	movwf	((??___flmul+0)+0+3)
  5642  076E  00DB               	movlw	01h
  5643  076F  3001               	movwf	(??___flmul+4)+0
  5644  0770  00DC               u2275:
  5645  0771                     	rlf	(??___flmul+0)+3,w
  5646  0771  0D5B               	rrf	(??___flmul+0)+3,f
  5647  0772  0CDB               	rrf	(??___flmul+0)+2,f
  5648  0773  0CDA               	rrf	(??___flmul+0)+1,f
  5649  0774  0CD9               	rrf	(??___flmul+0)+0,f
  5650  0775  0CD8               u2270:
  5651  0776                     	decfsz	(??___flmul+4)+0,f
  5652  0776  0BDC               	goto	u2275
  5653  0777  2F71               	movf	3+(??___flmul+0)+0,w
  5654  0778  085B               	movwf	(___flmul@prod+3)
  5655  0779  00E7               	movf	2+(??___flmul+0)+0,w
  5656  077A  085A               	movwf	(___flmul@prod+2)
  5657  077B  00E6               	movf	1+(??___flmul+0)+0,w
  5658  077C  0859               	movwf	(___flmul@prod+1)
  5659  077D  00E5               	movf	0+(??___flmul+0)+0,w
  5660  077E  0858               	movwf	(___flmul@prod)
  5661  077F  00E4               
  5662                           	line	178
  5663                           	
  5664                           l2220:	
  5665  0780                     	movlw	01h
  5666  0780  3001               	addwf	(___flmul@temp),f
  5667  0781  07E8               	skipnc
  5668  0782  1803               	incf	(___flmul@temp+1),f
  5669  0783  0AE9               	movlw	0
  5670  0784  3000               	addwf	(___flmul@temp+1),f
  5671  0785  07E9               	goto	l2222
  5672  0786  2F88               	line	179
  5673                           	
  5674                           l860:	
  5675  0787                     	goto	l2222
  5676  0787  2F88               	line	180
  5677                           	
  5678                           l859:	
  5679  0788                     	line	183
  5680                           	
  5681                           l2222:	
  5682  0788                     	movf	(___flmul@temp+1),w
  5683  0788  0869               	xorlw	80h
  5684  0789  3A80               	movwf	btemp+1
  5685  078A  00FF               	movlw	(0)^80h
  5686  078B  3080               	subwf	btemp+1,w
  5687  078C  027F               	skipz
  5688  078D  1D03               	goto	u2285
  5689  078E  2F91               	movlw	0FFh
  5690  078F  30FF               	subwf	(___flmul@temp),w
  5691  0790  0268               u2285:
  5692  0791                     
  5693                           	skipc
  5694  0791  1C03               	goto	u2281
  5695  0792  2F94               	goto	u2280
  5696  0793  2F95               u2281:
  5697  0794                     	goto	l2226
  5698  0794  2FA0               u2280:
  5699  0795                     	line	184
  5700                           	
  5701                           l2224:	
  5702  0795                     	movlw	07Fh
  5703  0795  307F               	bcf	status, 5	;RP0=0, select bank0
  5704  0796  1283               	bcf	status, 6	;RP1=0, select bank0
  5705  0797  1303               	movwf	(___flmul@prod+3)
  5706  0798  00E7               	movlw	080h
  5707  0799  3080               	movwf	(___flmul@prod+2)
  5708  079A  00E6               	movlw	0
  5709  079B  3000               	movwf	(___flmul@prod+1)
  5710  079C  00E5               	movlw	0
  5711  079D  3000               	movwf	(___flmul@prod)
  5712  079E  00E4               
  5713                           	line	185
  5714                           	goto	l862
  5715  079F  2FD7               	line	187
  5716                           	
  5717                           l861:	
  5718  07A0                     	
  5719                           l2226:	
  5720  07A0                     	bcf	status, 5	;RP0=0, select bank0
  5721  07A0  1283               	bcf	status, 6	;RP1=0, select bank0
  5722  07A1  1303               	movf	(___flmul@temp+1),w
  5723  07A2  0869               	xorlw	80h
  5724  07A3  3A80               	movwf	btemp+1
  5725  07A4  00FF               	movlw	(0)^80h
  5726  07A5  3080               	subwf	btemp+1,w
  5727  07A6  027F               	skipz
  5728  07A7  1D03               	goto	u2295
  5729  07A8  2FAB               	movlw	01h
  5730  07A9  3001               	subwf	(___flmul@temp),w
  5731  07AA  0268               u2295:
  5732  07AB                     
  5733                           	skipnc
  5734  07AB  1803               	goto	u2291
  5735  07AC  2FAE               	goto	u2290
  5736  07AD  2FAF               u2291:
  5737  07AE                     	goto	l2232
  5738  07AE  2FBB               u2290:
  5739  07AF                     	line	188
  5740                           	
  5741                           l2228:	
  5742  07AF                     	movlw	high highword(0)
  5743  07AF  3000               	bcf	status, 5	;RP0=0, select bank0
  5744  07B0  1283               	bcf	status, 6	;RP1=0, select bank0
  5745  07B1  1303               	movwf	(___flmul@prod+3)
  5746  07B2  00E7               	movlw	low highword(0)
  5747  07B3  3000               	movwf	(___flmul@prod+2)
  5748  07B4  00E6               	movlw	high(0)
  5749  07B5  3000               	movwf	(___flmul@prod+1)
  5750  07B6  00E5               	movlw	low(0)
  5751  07B7  3000               	movwf	(___flmul@prod)
  5752  07B8  00E4               
  5753                           	line	190
  5754                           	
  5755                           l2230:	
  5756  07B9                     	clrf	(___flmul@sign)
  5757  07B9  01DD               	line	191
  5758                           	goto	l862
  5759  07BA  2FD7               	line	192
  5760                           	
  5761                           l863:	
  5762  07BB                     	line	194
  5763                           	
  5764                           l2232:	
  5765  07BB                     	bcf	status, 5	;RP0=0, select bank0
  5766  07BB  1283               	bcf	status, 6	;RP1=0, select bank0
  5767  07BC  1303               	movf	(___flmul@temp),w
  5768  07BD  0868               	movwf	(??___flmul+0)+0
  5769  07BE  00D8               	movf	(??___flmul+0)+0,w
  5770  07BF  0858               	movwf	(___flmul@bexp)
  5771  07C0  00E3               	line	195
  5772                           	movlw	0FFh
  5773  07C1  30FF               	andwf	(___flmul@prod),f
  5774  07C2  05E4               	movlw	0FFh
  5775  07C3  30FF               	andwf	(___flmul@prod+1),f
  5776  07C4  05E5               	movlw	07Fh
  5777  07C5  307F               	andwf	(___flmul@prod+2),f
  5778  07C6  05E6               	movlw	0
  5779  07C7  3000               	andwf	(___flmul@prod+3),f
  5780  07C8  05E7               	line	196
  5781                           	
  5782                           l2234:	
  5783  07C9                     	btfss	(___flmul@bexp),(0)&7
  5784  07C9  1C63               	goto	u2301
  5785  07CA  2FCC               	goto	u2300
  5786  07CB  2FCD               u2301:
  5787  07CC                     	goto	l2238
  5788  07CC  2FCF               u2300:
  5789  07CD                     	line	197
  5790                           	
  5791                           l2236:	
  5792  07CD                     	bsf	0+(___flmul@prod)+02h+(7/8),(7)&7
  5793  07CD  17E6               	goto	l2238
  5794  07CE  2FCF               	line	198
  5795                           	
  5796                           l865:	
  5797  07CF                     	line	199
  5798                           	
  5799                           l2238:	
  5800  07CF                     	movf	(___flmul@bexp),w
  5801  07CF  0863               	movwf	(??___flmul+0)+0
  5802  07D0  00D8               	clrc
  5803  07D1  1003               	rrf	(??___flmul+0)+0,w
  5804  07D2  0C58               	movwf	(??___flmul+1)+0
  5805  07D3  00D9               	movf	(??___flmul+1)+0,w
  5806  07D4  0859               	movwf	0+(___flmul@prod)+03h
  5807  07D5  00E7               	goto	l862
  5808  07D6  2FD7               	line	200
  5809                           	
  5810                           l864:	
  5811  07D7                     	
  5812                           l862:	
  5813  07D7                     	line	201
  5814                           	movf	(___flmul@sign),w
  5815  07D7  085D               	movwf	(??___flmul+0)+0
  5816  07D8  00D8               	movf	(??___flmul+0)+0,w
  5817  07D9  0858               	iorwf	0+(___flmul@prod)+03h,f
  5818  07DA  04E7               	line	203
  5819                           	
  5820                           l2240:	
  5821  07DB                     	movf	(___flmul@prod+3),w
  5822  07DB  0867               	movwf	(?___flmul+3)
  5823  07DC  00D3               	movf	(___flmul@prod+2),w
  5824  07DD  0866               	movwf	(?___flmul+2)
  5825  07DE  00D2               	movf	(___flmul@prod+1),w
  5826  07DF  0865               	movwf	(?___flmul+1)
  5827  07E0  00D1               	movf	(___flmul@prod),w
  5828  07E1  0864               	movwf	(?___flmul)
  5829  07E2  00D0               
  5830                           	goto	l850
  5831  07E3  2FE4               	
  5832                           l2242:	
  5833  07E4                     	line	205
  5834                           	
  5835                           l850:	
  5836  07E4                     	return
  5837  07E4  0008               	opt stack 0
  5838                           GLOBAL	__end_of___flmul
  5839                           	__end_of___flmul:
  5840  07E5                     	signat	___flmul,8316
  5841                           	global	__Umul8_16
  5842                           
  5843 ;; *************** function __Umul8_16 *****************
  5844 ;; Defined at:
  5845 ;;		line 4 in file "C:\Program Files (x86)\Microchip\xc8\v2.00\pic\sources\c90\common\Umul8_16.c"
  5846 ;; Parameters:    Size  Location     Type
  5847 ;;  multiplier      1    wreg     unsigned char 
  5848 ;;  multiplicand    1    0[COMMON] unsigned char 
  5849 ;; Auto vars:     Size  Location     Type
  5850 ;;  multiplier      1    8[COMMON] unsigned char 
  5851 ;;  word_mpld       2    6[COMMON] unsigned int 
  5852 ;;  product         2    4[COMMON] unsigned int 
  5853 ;; Return value:  Size  Location     Type
  5854 ;;                  2    0[COMMON] unsigned int 
  5855 ;; Registers used:
  5856 ;;		wreg, status,2, status,0
  5857 ;; Tracked objects:
  5858 ;;		On entry : 0/0
  5859 ;;		On exit  : 0/0
  5860 ;;		Unchanged: 0/0
  5861 ;; Data sizes:     COMMON   BANK0   BANK1   BANK3   BANK2
  5862 ;;      Params:         2       0       0       0       0
  5863 ;;      Locals:         5       0       0       0       0
  5864 ;;      Temps:          2       0       0       0       0
  5865 ;;      Totals:         9       0       0       0       0
  5866 ;;Total ram usage:        9 bytes
  5867 ;; Hardware stack levels used:    1
  5868 ;; This function calls:
  5869 ;;		Nothing
  5870 ;; This function is called by:
  5871 ;;		___flmul
  5872 ;; This function uses a non-reentrant model
  5873 ;;
  5874                           psect	text14,local,class=CODE,delta=2,merge=1,group=1
  5875                           	file	"C:\Program Files (x86)\Microchip\xc8\v2.00\pic\sources\c90\common\Umul8_16.c"
  5876                           	line	4
  5877                           global __ptext14
  5878                           __ptext14:	;psect for function __Umul8_16
  5879  09D7                     psect	text14
  5880                           	file	"C:\Program Files (x86)\Microchip\xc8\v2.00\pic\sources\c90\common\Umul8_16.c"
  5881                           	line	4
  5882                           	global	__size_of__Umul8_16
  5883                           	__size_of__Umul8_16	equ	__end_of__Umul8_16-__Umul8_16
  5884  002A                     	
  5885                           __Umul8_16:	
  5886  09D7                     ;incstack = 0
  5887                           	opt	stack 3
  5888                           ; Regs used in __Umul8_16: [wreg+status,2+status,0]
  5889                           ;__Umul8_16@multiplier stored from wreg
  5890                           	movwf	(__Umul8_16@multiplier)
  5891  09D7  00F8               	line	5
  5892                           	
  5893                           l1908:	
  5894  09D8                     	clrf	(__Umul8_16@product)
  5895  09D8  01F4               	clrf	(__Umul8_16@product+1)
  5896  09D9  01F5               	line	6
  5897                           	
  5898                           l1910:	
  5899  09DA                     	movf	(__Umul8_16@multiplicand),w
  5900  09DA  0870               	movwf	(??__Umul8_16+0)+0
  5901  09DB  00F2               	clrf	(??__Umul8_16+0)+0+1
  5902  09DC  01F3               	movf	0+(??__Umul8_16+0)+0,w
  5903  09DD  0872               	movwf	(__Umul8_16@word_mpld)
  5904  09DE  00F6               	movf	1+(??__Umul8_16+0)+0,w
  5905  09DF  0873               	movwf	(__Umul8_16@word_mpld+1)
  5906  09E0  00F7               	goto	l1912
  5907  09E1  29E2               	line	50
  5908                           	
  5909                           l887:	
  5910  09E2                     	line	51
  5911                           	
  5912                           l1912:	
  5913  09E2                     	btfss	(__Umul8_16@multiplier),(0)&7
  5914  09E2  1C78               	goto	u1511
  5915  09E3  29E5               	goto	u1510
  5916  09E4  29E6               u1511:
  5917  09E5                     	goto	l888
  5918  09E5  29EC               u1510:
  5919  09E6                     	line	52
  5920                           	
  5921                           l1914:	
  5922  09E6                     	movf	(__Umul8_16@word_mpld),w
  5923  09E6  0876               	addwf	(__Umul8_16@product),f
  5924  09E7  07F4               	skipnc
  5925  09E8  1803               	incf	(__Umul8_16@product+1),f
  5926  09E9  0AF5               	movf	(__Umul8_16@word_mpld+1),w
  5927  09EA  0877               	addwf	(__Umul8_16@product+1),f
  5928  09EB  07F5               	line	53
  5929                           	
  5930                           l888:	
  5931  09EC                     	line	54
  5932                           	movlw	01h
  5933  09EC  3001               	
  5934                           u1525:
  5935  09ED                     	clrc
  5936  09ED  1003               	rlf	(__Umul8_16@word_mpld),f
  5937  09EE  0DF6               	rlf	(__Umul8_16@word_mpld+1),f
  5938  09EF  0DF7               	addlw	-1
  5939  09F0  3EFF               	skipz
  5940  09F1  1D03               	goto	u1525
  5941  09F2  29ED               	line	55
  5942                           	clrc
  5943  09F3  1003               	rrf	(__Umul8_16@multiplier),f
  5944  09F4  0CF8               
  5945                           	line	56
  5946                           	
  5947                           l1916:	
  5948  09F5                     	movf	((__Umul8_16@multiplier)),w
  5949  09F5  0878               	btfss	status,2
  5950  09F6  1D03               	goto	u1531
  5951  09F7  29F9               	goto	u1530
  5952  09F8  29FA               u1531:
  5953  09F9                     	goto	l1912
  5954  09F9  29E2               u1530:
  5955  09FA                     	goto	l1918
  5956  09FA  29FB               	
  5957                           l889:	
  5958  09FB                     	line	59
  5959                           	
  5960                           l1918:	
  5961  09FB                     	movf	(__Umul8_16@product+1),w
  5962  09FB  0875               	movwf	(?__Umul8_16+1)
  5963  09FC  00F1               	movf	(__Umul8_16@product),w
  5964  09FD  0874               	movwf	(?__Umul8_16)
  5965  09FE  00F0               	goto	l890
  5966  09FF  2A00               	
  5967                           l1920:	
  5968  0A00                     	line	60
  5969                           	
  5970                           l890:	
  5971  0A00                     	return
  5972  0A00  0008               	opt stack 0
  5973                           GLOBAL	__end_of__Umul8_16
  5974                           	__end_of__Umul8_16:
  5975  0A01                     	signat	__Umul8_16,8314
  5976                           	global	___fldiv
  5977                           
  5978 ;; *************** function ___fldiv *****************
  5979 ;; Defined at:
  5980 ;;		line 8 in file "C:\Program Files (x86)\Microchip\xc8\v2.00\pic\sources\c90\common\sprcdiv.c"
  5981 ;; Parameters:    Size  Location     Type
  5982 ;;  a               4   22[BANK0 ] unsigned int 
  5983 ;;  b               4   26[BANK0 ] unsigned int 
  5984 ;; Auto vars:     Size  Location     Type
  5985 ;;  grs             4   42[BANK0 ] unsigned long 
  5986 ;;  rem             4   35[BANK0 ] unsigned long 
  5987 ;;  new_exp         2   40[BANK0 ] int 
  5988 ;;  aexp            1   47[BANK0 ] unsigned char 
  5989 ;;  bexp            1   46[BANK0 ] unsigned char 
  5990 ;;  sign            1   39[BANK0 ] unsigned char 
  5991 ;; Return value:  Size  Location     Type
  5992 ;;                  4   22[BANK0 ] unsigned char 
  5993 ;; Registers used:
  5994 ;;		wreg, status,2, status,0, btemp+1
  5995 ;; Tracked objects:
  5996 ;;		On entry : 0/0
  5997 ;;		On exit  : 0/0
  5998 ;;		Unchanged: 0/0
  5999 ;; Data sizes:     COMMON   BANK0   BANK1   BANK3   BANK2
  6000 ;;      Params:         0       8       0       0       0
  6001 ;;      Locals:         0      13       0       0       0
  6002 ;;      Temps:          0       5       0       0       0
  6003 ;;      Totals:         0      26       0       0       0
  6004 ;;Total ram usage:       26 bytes
  6005 ;; Hardware stack levels used:    1
  6006 ;; This function calls:
  6007 ;;		Nothing
  6008 ;; This function is called by:
  6009 ;;		_PWM1_Duty
  6010 ;;		_PWM2_Duty
  6011 ;; This function uses a non-reentrant model
  6012 ;;
  6013                           psect	text15,local,class=CODE,delta=2,merge=1,group=1
  6014                           	file	"C:\Program Files (x86)\Microchip\xc8\v2.00\pic\sources\c90\common\sprcdiv.c"
  6015                           	line	8
  6016                           global __ptext15
  6017                           __ptext15:	;psect for function ___fldiv
  6018  0267                     psect	text15
  6019                           	file	"C:\Program Files (x86)\Microchip\xc8\v2.00\pic\sources\c90\common\sprcdiv.c"
  6020                           	line	8
  6021                           	global	__size_of___fldiv
  6022                           	__size_of___fldiv	equ	__end_of___fldiv-___fldiv
  6023  0209                     	
  6024                           ___fldiv:	
  6025  0267                     ;incstack = 0
  6026                           	opt	stack 4
  6027                           ; Regs used in ___fldiv: [wreg+status,2+status,0+btemp+1]
  6028                           	line	26
  6029                           	
  6030                           l1962:	
  6031  0267                     	bcf	status, 5	;RP0=0, select bank0
  6032  0267  1283               	bcf	status, 6	;RP1=0, select bank0
  6033  0268  1303               	movf	0+(___fldiv@b)+03h,w
  6034  0269  083D               	andlw	080h
  6035  026A  3980               	movwf	(??___fldiv+0)+0
  6036  026B  00BE               	movf	(??___fldiv+0)+0,w
  6037  026C  083E               	movwf	(___fldiv@sign)
  6038  026D  00C7               	line	27
  6039                           	
  6040                           l1964:	
  6041  026E                     	movf	0+(___fldiv@b)+03h,w
  6042  026E  083D               	movwf	(??___fldiv+0)+0
  6043  026F  00BE               	addwf	(??___fldiv+0)+0,w
  6044  0270  073E               	movwf	(??___fldiv+1)+0
  6045  0271  00BF               	movf	(??___fldiv+1)+0,w
  6046  0272  083F               	movwf	(___fldiv@bexp)
  6047  0273  00CE               	line	28
  6048                           	
  6049                           l1966:	
  6050  0274                     	btfss	0+(___fldiv@b)+02h,(7)&7
  6051  0274  1FBC               	goto	u1651
  6052  0275  2A77               	goto	u1650
  6053  0276  2A78               u1651:
  6054  0277                     	goto	l1970
  6055  0277  2A7A               u1650:
  6056  0278                     	line	29
  6057                           	
  6058                           l1968:	
  6059  0278                     	bsf	(___fldiv@bexp)+(0/8),(0)&7
  6060  0278  144E               	goto	l1970
  6061  0279  2A7A               	line	30
  6062                           	
  6063                           l803:	
  6064  027A                     	line	33
  6065                           	
  6066                           l1970:	
  6067  027A                     	movf	((___fldiv@bexp)),w
  6068  027A  084E               	btfsc	status,2
  6069  027B  1903               	goto	u1661
  6070  027C  2A7E               	goto	u1660
  6071  027D  2A7F               u1661:
  6072  027E                     	goto	l1980
  6073  027E  2A90               u1660:
  6074  027F                     	line	35
  6075                           	
  6076                           l1972:	
  6077  027F                     		incf	((___fldiv@bexp)),w
  6078  027F  0A4E               	btfss	status,2
  6079  0280  1D03               	goto	u1671
  6080  0281  2A83               	goto	u1670
  6081  0282  2A84               u1671:
  6082  0283                     	goto	l1976
  6083  0283  2A8D               u1670:
  6084  0284                     	line	37
  6085                           	
  6086                           l1974:	
  6087  0284                     	movlw	0x0
  6088  0284  3000               	movwf	(___fldiv@b+3)
  6089  0285  00BD               	movlw	0x0
  6090  0286  3000               	movwf	(___fldiv@b+2)
  6091  0287  00BC               	movlw	0x0
  6092  0288  3000               	movwf	(___fldiv@b+1)
  6093  0289  00BB               	movlw	0x0
  6094  028A  3000               	movwf	(___fldiv@b)
  6095  028B  00BA               
  6096                           	goto	l1976
  6097  028C  2A8D               	line	38
  6098                           	
  6099                           l805:	
  6100  028D                     	line	40
  6101                           	
  6102                           l1976:	
  6103  028D                     	bsf	(___fldiv@b)+(23/8),(23)&7
  6104  028D  17BC               	line	42
  6105                           	
  6106                           l1978:	
  6107  028E                     	clrf	0+(___fldiv@b)+03h
  6108  028E  01BD               	line	43
  6109                           	goto	l1982
  6110  028F  2A99               	line	44
  6111                           	
  6112                           l804:	
  6113  0290                     	line	46
  6114                           	
  6115                           l1980:	
  6116  0290                     	movlw	0x0
  6117  0290  3000               	movwf	(___fldiv@b+3)
  6118  0291  00BD               	movlw	0x0
  6119  0292  3000               	movwf	(___fldiv@b+2)
  6120  0293  00BC               	movlw	0x0
  6121  0294  3000               	movwf	(___fldiv@b+1)
  6122  0295  00BB               	movlw	0x0
  6123  0296  3000               	movwf	(___fldiv@b)
  6124  0297  00BA               
  6125                           	goto	l1982
  6126  0298  2A99               	line	47
  6127                           	
  6128                           l806:	
  6129  0299                     	line	49
  6130                           	
  6131                           l1982:	
  6132  0299                     	movf	0+(___fldiv@a)+03h,w
  6133  0299  0839               	andlw	080h
  6134  029A  3980               	movwf	(??___fldiv+0)+0
  6135  029B  00BE               	movf	(??___fldiv+0)+0,w
  6136  029C  083E               	xorwf	(___fldiv@sign),f
  6137  029D  06C7               	line	50
  6138                           	
  6139                           l1984:	
  6140  029E                     	movf	0+(___fldiv@a)+03h,w
  6141  029E  0839               	movwf	(??___fldiv+0)+0
  6142  029F  00BE               	addwf	(??___fldiv+0)+0,w
  6143  02A0  073E               	movwf	(??___fldiv+1)+0
  6144  02A1  00BF               	movf	(??___fldiv+1)+0,w
  6145  02A2  083F               	movwf	(___fldiv@aexp)
  6146  02A3  00CF               	line	51
  6147                           	
  6148                           l1986:	
  6149  02A4                     	btfss	0+(___fldiv@a)+02h,(7)&7
  6150  02A4  1FB8               	goto	u1681
  6151  02A5  2AA7               	goto	u1680
  6152  02A6  2AA8               u1681:
  6153  02A7                     	goto	l1990
  6154  02A7  2AAA               u1680:
  6155  02A8                     	line	52
  6156                           	
  6157                           l1988:	
  6158  02A8                     	bsf	(___fldiv@aexp)+(0/8),(0)&7
  6159  02A8  144F               	goto	l1990
  6160  02A9  2AAA               	line	53
  6161                           	
  6162                           l807:	
  6163  02AA                     	line	56
  6164                           	
  6165                           l1990:	
  6166  02AA                     	movf	((___fldiv@aexp)),w
  6167  02AA  084F               	btfsc	status,2
  6168  02AB  1903               	goto	u1691
  6169  02AC  2AAE               	goto	u1690
  6170  02AD  2AAF               u1691:
  6171  02AE                     	goto	l2000
  6172  02AE  2AC0               u1690:
  6173  02AF                     	line	58
  6174                           	
  6175                           l1992:	
  6176  02AF                     		incf	((___fldiv@aexp)),w
  6177  02AF  0A4F               	btfss	status,2
  6178  02B0  1D03               	goto	u1701
  6179  02B1  2AB3               	goto	u1700
  6180  02B2  2AB4               u1701:
  6181  02B3                     	goto	l1996
  6182  02B3  2ABD               u1700:
  6183  02B4                     	line	60
  6184                           	
  6185                           l1994:	
  6186  02B4                     	movlw	0x0
  6187  02B4  3000               	movwf	(___fldiv@a+3)
  6188  02B5  00B9               	movlw	0x0
  6189  02B6  3000               	movwf	(___fldiv@a+2)
  6190  02B7  00B8               	movlw	0x0
  6191  02B8  3000               	movwf	(___fldiv@a+1)
  6192  02B9  00B7               	movlw	0x0
  6193  02BA  3000               	movwf	(___fldiv@a)
  6194  02BB  00B6               
  6195                           	goto	l1996
  6196  02BC  2ABD               	line	61
  6197                           	
  6198                           l809:	
  6199  02BD                     	line	63
  6200                           	
  6201                           l1996:	
  6202  02BD                     	bsf	(___fldiv@a)+(23/8),(23)&7
  6203  02BD  17B8               	line	65
  6204                           	
  6205                           l1998:	
  6206  02BE                     	clrf	0+(___fldiv@a)+03h
  6207  02BE  01B9               	line	66
  6208                           	goto	l810
  6209  02BF  2AC8               	line	67
  6210                           	
  6211                           l808:	
  6212  02C0                     	line	69
  6213                           	
  6214                           l2000:	
  6215  02C0                     	movlw	0x0
  6216  02C0  3000               	movwf	(___fldiv@a+3)
  6217  02C1  00B9               	movlw	0x0
  6218  02C2  3000               	movwf	(___fldiv@a+2)
  6219  02C3  00B8               	movlw	0x0
  6220  02C4  3000               	movwf	(___fldiv@a+1)
  6221  02C5  00B7               	movlw	0x0
  6222  02C6  3000               	movwf	(___fldiv@a)
  6223  02C7  00B6               
  6224                           	line	70
  6225                           	
  6226                           l810:	
  6227  02C8                     	line	75
  6228                           	movf	(___fldiv@a+3),w
  6229  02C8  0839               	iorwf	(___fldiv@a+2),w
  6230  02C9  0438               	iorwf	(___fldiv@a+1),w
  6231  02CA  0437               	iorwf	(___fldiv@a),w
  6232  02CB  0436               	skipz
  6233  02CC  1D03               	goto	u1711
  6234  02CD  2ACF               	goto	u1710
  6235  02CE  2AD0               u1711:
  6236  02CF                     	goto	l2010
  6237  02CF  2AEA               u1710:
  6238  02D0                     	line	76
  6239                           	
  6240                           l2002:	
  6241  02D0                     	movlw	high highword(0)
  6242  02D0  3000               	movwf	(___fldiv@b+3)
  6243  02D1  00BD               	movlw	low highword(0)
  6244  02D2  3000               	movwf	(___fldiv@b+2)
  6245  02D3  00BC               	movlw	high(0)
  6246  02D4  3000               	movwf	(___fldiv@b+1)
  6247  02D5  00BB               	movlw	low(0)
  6248  02D6  3000               	movwf	(___fldiv@b)
  6249  02D7  00BA               
  6250                           	line	77
  6251                           	movlw	080h
  6252  02D8  3080               	iorwf	0+(___fldiv@b)+02h,f
  6253  02D9  04BC               	movlw	07Fh
  6254  02DA  307F               	iorwf	1+(___fldiv@b)+02h,f
  6255  02DB  04BD               	line	78
  6256                           	
  6257                           l2004:	
  6258  02DC                     	movf	(___fldiv@sign),w
  6259  02DC  0847               	movwf	(??___fldiv+0)+0
  6260  02DD  00BE               	movf	(??___fldiv+0)+0,w
  6261  02DE  083E               	iorwf	0+(___fldiv@b)+03h,f
  6262  02DF  04BD               	line	79
  6263                           	
  6264                           l2006:	
  6265  02E0                     	movf	(___fldiv@b+3),w
  6266  02E0  083D               	movwf	(?___fldiv+3)
  6267  02E1  00B9               	movf	(___fldiv@b+2),w
  6268  02E2  083C               	movwf	(?___fldiv+2)
  6269  02E3  00B8               	movf	(___fldiv@b+1),w
  6270  02E4  083B               	movwf	(?___fldiv+1)
  6271  02E5  00B7               	movf	(___fldiv@b),w
  6272  02E6  083A               	movwf	(?___fldiv)
  6273  02E7  00B6               
  6274                           	goto	l812
  6275  02E8  2C6F               	
  6276                           l2008:	
  6277  02E9                     	goto	l812
  6278  02E9  2C6F               	line	80
  6279                           	
  6280                           l811:	
  6281  02EA                     	line	83
  6282                           	
  6283                           l2010:	
  6284  02EA                     	movf	((___fldiv@bexp)),w
  6285  02EA  084E               	btfss	status,2
  6286  02EB  1D03               	goto	u1721
  6287  02EC  2AEE               	goto	u1720
  6288  02ED  2AEF               u1721:
  6289  02EE                     	goto	l2016
  6290  02EE  2B01               u1720:
  6291  02EF                     	line	84
  6292                           	
  6293                           l2012:	
  6294  02EF                     	movlw	high highword(0)
  6295  02EF  3000               	movwf	(___fldiv@b+3)
  6296  02F0  00BD               	movlw	low highword(0)
  6297  02F1  3000               	movwf	(___fldiv@b+2)
  6298  02F2  00BC               	movlw	high(0)
  6299  02F3  3000               	movwf	(___fldiv@b+1)
  6300  02F4  00BB               	movlw	low(0)
  6301  02F5  3000               	movwf	(___fldiv@b)
  6302  02F6  00BA               
  6303                           	line	85
  6304                           	movf	(___fldiv@b+3),w
  6305  02F7  083D               	movwf	(?___fldiv+3)
  6306  02F8  00B9               	movf	(___fldiv@b+2),w
  6307  02F9  083C               	movwf	(?___fldiv+2)
  6308  02FA  00B8               	movf	(___fldiv@b+1),w
  6309  02FB  083B               	movwf	(?___fldiv+1)
  6310  02FC  00B7               	movf	(___fldiv@b),w
  6311  02FD  083A               	movwf	(?___fldiv)
  6312  02FE  00B6               
  6313                           	goto	l812
  6314  02FF  2C6F               	
  6315                           l2014:	
  6316  0300                     	goto	l812
  6317  0300  2C6F               	line	86
  6318                           	
  6319                           l813:	
  6320  0301                     	line	89
  6321                           	
  6322                           l2016:	
  6323  0301                     	movf	(___fldiv@aexp),w
  6324  0301  084F               	movwf	(??___fldiv+0)+0
  6325  0302  00BE               	clrf	(??___fldiv+0)+0+1
  6326  0303  01BF               	comf	(??___fldiv+0)+0,f
  6327  0304  09BE               	comf	(??___fldiv+0)+1,f
  6328  0305  09BF               	incf	(??___fldiv+0)+0,f
  6329  0306  0ABE               	skipnz
  6330  0307  1903               	incf	(??___fldiv+0)+1,f
  6331  0308  0ABF               	movf	(___fldiv@bexp),w
  6332  0309  084E               	addwf	0+(??___fldiv+0)+0,w
  6333  030A  073E               	movwf	(??___fldiv+2)+0
  6334  030B  00C0               	movf	1+(??___fldiv+0)+0,w
  6335  030C  083F               	skipnc
  6336  030D  1803               	incf	1+(??___fldiv+0)+0,w
  6337  030E  0A3F               	movwf	((??___fldiv+2)+0)+1
  6338  030F  00C1               	movf	0+(??___fldiv+2)+0,w
  6339  0310  0840               	addlw	low(07Fh)
  6340  0311  3E7F               	movwf	(___fldiv@new_exp)
  6341  0312  00C8               	movf	1+(??___fldiv+2)+0,w
  6342  0313  0841               	skipnc
  6343  0314  1803               	addlw	1
  6344  0315  3E01               	addlw	high(07Fh)
  6345  0316  3E00               	movwf	1+(___fldiv@new_exp)
  6346  0317  00C9               	line	92
  6347                           	
  6348                           l2018:	
  6349  0318                     	movf	(___fldiv@b+3),w
  6350  0318  083D               	movwf	(___fldiv@rem+3)
  6351  0319  00C6               	movf	(___fldiv@b+2),w
  6352  031A  083C               	movwf	(___fldiv@rem+2)
  6353  031B  00C5               	movf	(___fldiv@b+1),w
  6354  031C  083B               	movwf	(___fldiv@rem+1)
  6355  031D  00C4               	movf	(___fldiv@b),w
  6356  031E  083A               	movwf	(___fldiv@rem)
  6357  031F  00C3               
  6358                           	line	93
  6359                           	
  6360                           l2020:	
  6361  0320                     	movlw	high highword(0)
  6362  0320  3000               	movwf	(___fldiv@b+3)
  6363  0321  00BD               	movlw	low highword(0)
  6364  0322  3000               	movwf	(___fldiv@b+2)
  6365  0323  00BC               	movlw	high(0)
  6366  0324  3000               	movwf	(___fldiv@b+1)
  6367  0325  00BB               	movlw	low(0)
  6368  0326  3000               	movwf	(___fldiv@b)
  6369  0327  00BA               
  6370                           	line	94
  6371                           	
  6372                           l2022:	
  6373  0328                     	movlw	high highword(0)
  6374  0328  3000               	movwf	(___fldiv@grs+3)
  6375  0329  00CD               	movlw	low highword(0)
  6376  032A  3000               	movwf	(___fldiv@grs+2)
  6377  032B  00CC               	movlw	high(0)
  6378  032C  3000               	movwf	(___fldiv@grs+1)
  6379  032D  00CB               	movlw	low(0)
  6380  032E  3000               	movwf	(___fldiv@grs)
  6381  032F  00CA               
  6382                           	line	96
  6383                           	
  6384                           l2024:	
  6385  0330                     	clrf	(___fldiv@aexp)
  6386  0330  01CF               	line	97
  6387                           	goto	l2044
  6388  0331  2B80               	
  6389                           l815:	
  6390  0332                     	line	100
  6391                           	
  6392                           l2026:	
  6393  0332                     	movf	((___fldiv@aexp)),w
  6394  0332  084F               	btfsc	status,2
  6395  0333  1903               	goto	u1731
  6396  0334  2B36               	goto	u1730
  6397  0335  2B37               u1731:
  6398  0336                     	goto	l2036
  6399  0336  2B59               u1730:
  6400  0337                     	line	101
  6401                           	
  6402                           l2028:	
  6403  0337                     	movlw	01h
  6404  0337  3001               	movwf	(??___fldiv+0)+0
  6405  0338  00BE               u1745:
  6406  0339                     	clrc
  6407  0339  1003               	rlf	(___fldiv@rem),f
  6408  033A  0DC3               	rlf	(___fldiv@rem+1),f
  6409  033B  0DC4               	rlf	(___fldiv@rem+2),f
  6410  033C  0DC5               	rlf	(___fldiv@rem+3),f
  6411  033D  0DC6               	decfsz	(??___fldiv+0)+0
  6412  033E  0BBE               	goto	u1745
  6413  033F  2B39               	line	102
  6414                           	movlw	01h
  6415  0340  3001               	movwf	(??___fldiv+0)+0
  6416  0341  00BE               u1755:
  6417  0342                     	clrc
  6418  0342  1003               	rlf	(___fldiv@b),f
  6419  0343  0DBA               	rlf	(___fldiv@b+1),f
  6420  0344  0DBB               	rlf	(___fldiv@b+2),f
  6421  0345  0DBC               	rlf	(___fldiv@b+3),f
  6422  0346  0DBD               	decfsz	(??___fldiv+0)+0
  6423  0347  0BBE               	goto	u1755
  6424  0348  2B42               	line	103
  6425                           	
  6426                           l2030:	
  6427  0349                     	btfss	(___fldiv@grs+3),(31)&7
  6428  0349  1FCD               	goto	u1761
  6429  034A  2B4C               	goto	u1760
  6430  034B  2B4D               u1761:
  6431  034C                     	goto	l2034
  6432  034C  2B4F               u1760:
  6433  034D                     	line	104
  6434                           	
  6435                           l2032:	
  6436  034D                     	bsf	(___fldiv@b)+(0/8),(0)&7
  6437  034D  143A               	goto	l2034
  6438  034E  2B4F               	line	105
  6439                           	
  6440                           l817:	
  6441  034F                     	line	106
  6442                           	
  6443                           l2034:	
  6444  034F                     	movlw	01h
  6445  034F  3001               	movwf	(??___fldiv+0)+0
  6446  0350  00BE               u1775:
  6447  0351                     	clrc
  6448  0351  1003               	rlf	(___fldiv@grs),f
  6449  0352  0DCA               	rlf	(___fldiv@grs+1),f
  6450  0353  0DCB               	rlf	(___fldiv@grs+2),f
  6451  0354  0DCC               	rlf	(___fldiv@grs+3),f
  6452  0355  0DCD               	decfsz	(??___fldiv+0)+0
  6453  0356  0BBE               	goto	u1775
  6454  0357  2B51               	goto	l2036
  6455  0358  2B59               	line	107
  6456                           	
  6457                           l816:	
  6458  0359                     	line	112
  6459                           	
  6460                           l2036:	
  6461  0359                     	movf	(___fldiv@a+3),w
  6462  0359  0839               	subwf	(___fldiv@rem+3),w
  6463  035A  0246               	skipz
  6464  035B  1D03               	goto	u1785
  6465  035C  2B67               	movf	(___fldiv@a+2),w
  6466  035D  0838               	subwf	(___fldiv@rem+2),w
  6467  035E  0245               	skipz
  6468  035F  1D03               	goto	u1785
  6469  0360  2B67               	movf	(___fldiv@a+1),w
  6470  0361  0837               	subwf	(___fldiv@rem+1),w
  6471  0362  0244               	skipz
  6472  0363  1D03               	goto	u1785
  6473  0364  2B67               	movf	(___fldiv@a),w
  6474  0365  0836               	subwf	(___fldiv@rem),w
  6475  0366  0243               u1785:
  6476  0367                     	skipc
  6477  0367  1C03               	goto	u1781
  6478  0368  2B6A               	goto	u1780
  6479  0369  2B6B               u1781:
  6480  036A                     	goto	l2042
  6481  036A  2B7B               u1780:
  6482  036B                     	line	115
  6483                           	
  6484                           l2038:	
  6485  036B                     	bsf	(___fldiv@grs)+(30/8),(30)&7
  6486  036B  174D               	line	116
  6487                           	
  6488                           l2040:	
  6489  036C                     	movf	(___fldiv@a),w
  6490  036C  0836               	subwf	(___fldiv@rem),f
  6491  036D  02C3               	movf	(___fldiv@a+1),w
  6492  036E  0837               	skipc
  6493  036F  1C03               	incfsz	(___fldiv@a+1),w
  6494  0370  0F37               	subwf	(___fldiv@rem+1),f
  6495  0371  02C4               	movf	(___fldiv@a+2),w
  6496  0372  0838               	skipc
  6497  0373  1C03               	incfsz	(___fldiv@a+2),w
  6498  0374  0F38               	subwf	(___fldiv@rem+2),f
  6499  0375  02C5               	movf	(___fldiv@a+3),w
  6500  0376  0839               	skipc
  6501  0377  1C03               	incfsz	(___fldiv@a+3),w
  6502  0378  0F39               	subwf	(___fldiv@rem+3),f
  6503  0379  02C6               	goto	l2042
  6504  037A  2B7B               	line	117
  6505                           	
  6506                           l818:	
  6507  037B                     	line	118
  6508                           	
  6509                           l2042:	
  6510  037B                     	movlw	low(01h)
  6511  037B  3001               	movwf	(??___fldiv+0)+0
  6512  037C  00BE               	movf	(??___fldiv+0)+0,w
  6513  037D  083E               	addwf	(___fldiv@aexp),f
  6514  037E  07CF               	goto	l2044
  6515  037F  2B80               	line	119
  6516                           	
  6517                           l814:	
  6518  0380                     	line	97
  6519                           	
  6520                           l2044:	
  6521  0380                     	movlw	low(01Ah)
  6522  0380  301A               	subwf	(___fldiv@aexp),w
  6523  0381  024F               	skipc
  6524  0382  1C03               	goto	u1791
  6525  0383  2B85               	goto	u1790
  6526  0384  2B86               u1791:
  6527  0385                     	goto	l2026
  6528  0385  2B32               u1790:
  6529  0386                     	goto	l2046
  6530  0386  2B87               	
  6531                           l819:	
  6532  0387                     	line	122
  6533                           	
  6534                           l2046:	
  6535  0387                     	movf	(___fldiv@rem+3),w
  6536  0387  0846               	iorwf	(___fldiv@rem+2),w
  6537  0388  0445               	iorwf	(___fldiv@rem+1),w
  6538  0389  0444               	iorwf	(___fldiv@rem),w
  6539  038A  0443               	skipnz
  6540  038B  1903               	goto	u1801
  6541  038C  2B8E               	goto	u1800
  6542  038D  2B8F               u1801:
  6543  038E                     	goto	l2060
  6544  038E  2BB1               u1800:
  6545  038F                     	line	123
  6546                           	
  6547                           l2048:	
  6548  038F                     	bsf	(___fldiv@grs)+(0/8),(0)&7
  6549  038F  144A               	goto	l2060
  6550  0390  2BB1               	line	124
  6551                           	
  6552                           l820:	
  6553  0391                     	line	127
  6554                           	goto	l2060
  6555  0391  2BB1               	
  6556                           l822:	
  6557  0392                     	line	128
  6558                           	
  6559                           l2050:	
  6560  0392                     	movlw	01h
  6561  0392  3001               	movwf	(??___fldiv+0)+0
  6562  0393  00BE               u1815:
  6563  0394                     	clrc
  6564  0394  1003               	rlf	(___fldiv@b),f
  6565  0395  0DBA               	rlf	(___fldiv@b+1),f
  6566  0396  0DBB               	rlf	(___fldiv@b+2),f
  6567  0397  0DBC               	rlf	(___fldiv@b+3),f
  6568  0398  0DBD               	decfsz	(??___fldiv+0)+0
  6569  0399  0BBE               	goto	u1815
  6570  039A  2B94               	line	129
  6571                           	
  6572                           l2052:	
  6573  039B                     	btfss	(___fldiv@grs+3),(31)&7
  6574  039B  1FCD               	goto	u1821
  6575  039C  2B9E               	goto	u1820
  6576  039D  2B9F               u1821:
  6577  039E                     	goto	l2056
  6578  039E  2BA1               u1820:
  6579  039F                     	line	130
  6580                           	
  6581                           l2054:	
  6582  039F                     	bsf	(___fldiv@b)+(0/8),(0)&7
  6583  039F  143A               	goto	l2056
  6584  03A0  2BA1               	line	131
  6585                           	
  6586                           l823:	
  6587  03A1                     	line	132
  6588                           	
  6589                           l2056:	
  6590  03A1                     	movlw	01h
  6591  03A1  3001               	movwf	(??___fldiv+0)+0
  6592  03A2  00BE               u1835:
  6593  03A3                     	clrc
  6594  03A3  1003               	rlf	(___fldiv@grs),f
  6595  03A4  0DCA               	rlf	(___fldiv@grs+1),f
  6596  03A5  0DCB               	rlf	(___fldiv@grs+2),f
  6597  03A6  0DCC               	rlf	(___fldiv@grs+3),f
  6598  03A7  0DCD               	decfsz	(??___fldiv+0)+0
  6599  03A8  0BBE               	goto	u1835
  6600  03A9  2BA3               	line	133
  6601                           	
  6602                           l2058:	
  6603  03AA                     	movlw	0FFh
  6604  03AA  30FF               	addwf	(___fldiv@new_exp),f
  6605  03AB  07C8               	skipnc
  6606  03AC  1803               	incf	(___fldiv@new_exp+1),f
  6607  03AD  0AC9               	movlw	0FFh
  6608  03AE  30FF               	addwf	(___fldiv@new_exp+1),f
  6609  03AF  07C9               	goto	l2060
  6610  03B0  2BB1               	line	134
  6611                           	
  6612                           l821:	
  6613  03B1                     	line	127
  6614                           	
  6615                           l2060:	
  6616  03B1                     	btfss	(___fldiv@b+2),(23)&7
  6617  03B1  1FBC               	goto	u1841
  6618  03B2  2BB4               	goto	u1840
  6619  03B3  2BB5               u1841:
  6620  03B4                     	goto	l2050
  6621  03B4  2B92               u1840:
  6622  03B5                     	goto	l2062
  6623  03B5  2BB6               	
  6624                           l824:	
  6625  03B6                     	line	139
  6626                           	
  6627                           l2062:	
  6628  03B6                     	clrf	(___fldiv@aexp)
  6629  03B6  01CF               	line	140
  6630                           	
  6631                           l2064:	
  6632  03B7                     	btfss	(___fldiv@grs+3),(31)&7
  6633  03B7  1FCD               	goto	u1851
  6634  03B8  2BBA               	goto	u1850
  6635  03B9  2BBB               u1851:
  6636  03BA                     	goto	l2072
  6637  03BA  2BDB               u1850:
  6638  03BB                     	line	141
  6639                           	
  6640                           l2066:	
  6641  03BB                     	movlw	0FFh
  6642  03BB  30FF               	andwf	(___fldiv@grs),w
  6643  03BC  054A               	movwf	(??___fldiv+0)+0
  6644  03BD  00BE               	movlw	0FFh
  6645  03BE  30FF               	andwf	(___fldiv@grs+1),w
  6646  03BF  054B               	movwf	((??___fldiv+0)+0+1)
  6647  03C0  00BF               	movlw	0FFh
  6648  03C1  30FF               	andwf	(___fldiv@grs+2),w
  6649  03C2  054C               	movwf	((??___fldiv+0)+0+2)
  6650  03C3  00C0               	movlw	07Fh
  6651  03C4  307F               	andwf	(___fldiv@grs+3),w
  6652  03C5  054D               	movwf	((??___fldiv+0)+0+3)
  6653  03C6  00C1               	movf	3+(??___fldiv+0)+0,w
  6654  03C7  0841               	iorwf	2+(??___fldiv+0)+0,w
  6655  03C8  0440               	iorwf	1+(??___fldiv+0)+0,w
  6656  03C9  043F               	iorwf	0+(??___fldiv+0)+0,w
  6657  03CA  043E               	skipnz
  6658  03CB  1903               	goto	u1861
  6659  03CC  2BCE               	goto	u1860
  6660  03CD  2BCF               u1861:
  6661  03CE                     	goto	l826
  6662  03CE  2BD2               u1860:
  6663  03CF                     	line	142
  6664                           	
  6665                           l2068:	
  6666  03CF                     	clrf	(___fldiv@aexp)
  6667  03CF  01CF               	incf	(___fldiv@aexp),f
  6668  03D0  0ACF               	line	143
  6669                           	goto	l2072
  6670  03D1  2BDB               	line	144
  6671                           	
  6672                           l826:	
  6673  03D2                     	line	145
  6674                           	btfss	(___fldiv@b),(0)&7
  6675  03D2  1C3A               	goto	u1871
  6676  03D3  2BD5               	goto	u1870
  6677  03D4  2BD6               u1871:
  6678  03D5                     	goto	l2072
  6679  03D5  2BDB               u1870:
  6680  03D6                     	line	146
  6681                           	
  6682                           l2070:	
  6683  03D6                     	clrf	(___fldiv@aexp)
  6684  03D6  01CF               	incf	(___fldiv@aexp),f
  6685  03D7  0ACF               	goto	l2072
  6686  03D8  2BDB               	line	147
  6687                           	
  6688                           l828:	
  6689  03D9                     	goto	l2072
  6690  03D9  2BDB               	line	148
  6691                           	
  6692                           l827:	
  6693  03DA                     	goto	l2072
  6694  03DA  2BDB               	line	149
  6695                           	
  6696                           l825:	
  6697  03DB                     	line	150
  6698                           	
  6699                           l2072:	
  6700  03DB                     	movf	((___fldiv@aexp)),w
  6701  03DB  084F               	btfsc	status,2
  6702  03DC  1903               	goto	u1881
  6703  03DD  2BDF               	goto	u1880
  6704  03DE  2BE0               u1881:
  6705  03DF                     	goto	l2082
  6706  03DF  2C13               u1880:
  6707  03E0                     	line	151
  6708                           	
  6709                           l2074:	
  6710  03E0                     	movlw	01h
  6711  03E0  3001               	addwf	(___fldiv@b),f
  6712  03E1  07BA               	movlw	0
  6713  03E2  3000               	skipnc
  6714  03E3  1803               movlw 1
  6715  03E4  3001               	addwf	(___fldiv@b+1),f
  6716  03E5  07BB               	movlw	0
  6717  03E6  3000               	skipnc
  6718  03E7  1803               movlw 1
  6719  03E8  3001               	addwf	(___fldiv@b+2),f
  6720  03E9  07BC               	movlw	0
  6721  03EA  3000               	skipnc
  6722  03EB  1803               movlw 1
  6723  03EC  3001               	addwf	(___fldiv@b+3),f
  6724  03ED  07BD               	line	152
  6725                           	
  6726                           l2076:	
  6727  03EE                     	btfss	(___fldiv@b+3),(24)&7
  6728  03EE  1C3D               	goto	u1891
  6729  03EF  2BF1               	goto	u1890
  6730  03F0  2BF2               u1891:
  6731  03F1                     	goto	l2082
  6732  03F1  2C13               u1890:
  6733  03F2                     	line	153
  6734                           	
  6735                           l2078:	
  6736  03F2                     	movf	(___fldiv@b),w
  6737  03F2  083A               	movwf	(??___fldiv+0)+0
  6738  03F3  00BE               	movf	(___fldiv@b+1),w
  6739  03F4  083B               	movwf	((??___fldiv+0)+0+1)
  6740  03F5  00BF               	movf	(___fldiv@b+2),w
  6741  03F6  083C               	movwf	((??___fldiv+0)+0+2)
  6742  03F7  00C0               	movf	(___fldiv@b+3),w
  6743  03F8  083D               	movwf	((??___fldiv+0)+0+3)
  6744  03F9  00C1               	movlw	01h
  6745  03FA  3001               	movwf	(??___fldiv+4)+0
  6746  03FB  00C2               u1905:
  6747  03FC                     	rlf	(??___fldiv+0)+3,w
  6748  03FC  0D41               	rrf	(??___fldiv+0)+3,f
  6749  03FD  0CC1               	rrf	(??___fldiv+0)+2,f
  6750  03FE  0CC0               	rrf	(??___fldiv+0)+1,f
  6751  03FF  0CBF               	rrf	(??___fldiv+0)+0,f
  6752  0400  0CBE               u1900:
  6753  0401                     	decfsz	(??___fldiv+4)+0,f
  6754  0401  0BC2               	goto	u1905
  6755  0402  2BFC               	movf	3+(??___fldiv+0)+0,w
  6756  0403  0841               	movwf	(___fldiv@b+3)
  6757  0404  00BD               	movf	2+(??___fldiv+0)+0,w
  6758  0405  0840               	movwf	(___fldiv@b+2)
  6759  0406  00BC               	movf	1+(??___fldiv+0)+0,w
  6760  0407  083F               	movwf	(___fldiv@b+1)
  6761  0408  00BB               	movf	0+(??___fldiv+0)+0,w
  6762  0409  083E               	movwf	(___fldiv@b)
  6763  040A  00BA               
  6764                           	line	154
  6765                           	
  6766                           l2080:	
  6767  040B                     	movlw	01h
  6768  040B  3001               	addwf	(___fldiv@new_exp),f
  6769  040C  07C8               	skipnc
  6770  040D  1803               	incf	(___fldiv@new_exp+1),f
  6771  040E  0AC9               	movlw	0
  6772  040F  3000               	addwf	(___fldiv@new_exp+1),f
  6773  0410  07C9               	goto	l2082
  6774  0411  2C13               	line	155
  6775                           	
  6776                           l830:	
  6777  0412                     	goto	l2082
  6778  0412  2C13               	line	156
  6779                           	
  6780                           l829:	
  6781  0413                     	line	159
  6782                           	
  6783                           l2082:	
  6784  0413                     	movf	(___fldiv@new_exp+1),w
  6785  0413  0849               	xorlw	80h
  6786  0414  3A80               	movwf	btemp+1
  6787  0415  00FF               	movlw	(0)^80h
  6788  0416  3080               	subwf	btemp+1,w
  6789  0417  027F               	skipz
  6790  0418  1D03               	goto	u1915
  6791  0419  2C1C               	movlw	0FFh
  6792  041A  30FF               	subwf	(___fldiv@new_exp),w
  6793  041B  0248               u1915:
  6794  041C                     
  6795                           	skipc
  6796  041C  1C03               	goto	u1911
  6797  041D  2C1F               	goto	u1910
  6798  041E  2C20               u1911:
  6799  041F                     	goto	l2086
  6800  041F  2C2F               u1910:
  6801  0420                     	line	160
  6802                           	
  6803                           l2084:	
  6804  0420                     	movlw	0FFh
  6805  0420  30FF               	bcf	status, 5	;RP0=0, select bank0
  6806  0421  1283               	bcf	status, 6	;RP1=0, select bank0
  6807  0422  1303               	movwf	(___fldiv@new_exp)
  6808  0423  00C8               	movlw	0
  6809  0424  3000               	movwf	((___fldiv@new_exp))+1
  6810  0425  00C9               	line	161
  6811                           	movlw	high highword(0)
  6812  0426  3000               	movwf	(___fldiv@b+3)
  6813  0427  00BD               	movlw	low highword(0)
  6814  0428  3000               	movwf	(___fldiv@b+2)
  6815  0429  00BC               	movlw	high(0)
  6816  042A  3000               	movwf	(___fldiv@b+1)
  6817  042B  00BB               	movlw	low(0)
  6818  042C  3000               	movwf	(___fldiv@b)
  6819  042D  00BA               
  6820                           	goto	l2086
  6821  042E  2C2F               	line	162
  6822                           	
  6823                           l831:	
  6824  042F                     	line	165
  6825                           	
  6826                           l2086:	
  6827  042F                     	bcf	status, 5	;RP0=0, select bank0
  6828  042F  1283               	bcf	status, 6	;RP1=0, select bank0
  6829  0430  1303               	movf	(___fldiv@new_exp+1),w
  6830  0431  0849               	xorlw	80h
  6831  0432  3A80               	movwf	btemp+1
  6832  0433  00FF               	movlw	(0)^80h
  6833  0434  3080               	subwf	btemp+1,w
  6834  0435  027F               	skipz
  6835  0436  1D03               	goto	u1925
  6836  0437  2C3A               	movlw	01h
  6837  0438  3001               	subwf	(___fldiv@new_exp),w
  6838  0439  0248               u1925:
  6839  043A                     
  6840                           	skipnc
  6841  043A  1803               	goto	u1921
  6842  043B  2C3D               	goto	u1920
  6843  043C  2C3E               u1921:
  6844  043D                     	goto	l832
  6845  043D  2C4B               u1920:
  6846  043E                     	line	166
  6847                           	
  6848                           l2088:	
  6849  043E                     	bcf	status, 5	;RP0=0, select bank0
  6850  043E  1283               	bcf	status, 6	;RP1=0, select bank0
  6851  043F  1303               	clrf	(___fldiv@new_exp)
  6852  0440  01C8               	clrf	(___fldiv@new_exp+1)
  6853  0441  01C9               	line	167
  6854                           	
  6855                           l2090:	
  6856  0442                     	movlw	high highword(0)
  6857  0442  3000               	movwf	(___fldiv@b+3)
  6858  0443  00BD               	movlw	low highword(0)
  6859  0444  3000               	movwf	(___fldiv@b+2)
  6860  0445  00BC               	movlw	high(0)
  6861  0446  3000               	movwf	(___fldiv@b+1)
  6862  0447  00BB               	movlw	low(0)
  6863  0448  3000               	movwf	(___fldiv@b)
  6864  0449  00BA               
  6865                           	line	169
  6866                           	
  6867                           l2092:	
  6868  044A                     	clrf	(___fldiv@sign)
  6869  044A  01C7               	line	170
  6870                           	
  6871                           l832:	
  6872  044B                     	line	173
  6873                           	bcf	status, 5	;RP0=0, select bank0
  6874  044B  1283               	bcf	status, 6	;RP1=0, select bank0
  6875  044C  1303               	movf	(___fldiv@new_exp),w
  6876  044D  0848               	movwf	(??___fldiv+0)+0
  6877  044E  00BE               	movf	(??___fldiv+0)+0,w
  6878  044F  083E               	movwf	(___fldiv@bexp)
  6879  0450  00CE               	line	175
  6880                           	
  6881                           l2094:	
  6882  0451                     	btfss	(___fldiv@bexp),(0)&7
  6883  0451  1C4E               	goto	u1931
  6884  0452  2C54               	goto	u1930
  6885  0453  2C55               u1931:
  6886  0454                     	goto	l2098
  6887  0454  2C57               u1930:
  6888  0455                     	line	176
  6889                           	
  6890                           l2096:	
  6891  0455                     	bsf	0+(___fldiv@b)+02h+(7/8),(7)&7
  6892  0455  17BC               	line	177
  6893                           	goto	l834
  6894  0456  2C5B               	line	179
  6895                           	
  6896                           l833:	
  6897  0457                     	line	180
  6898                           	
  6899                           l2098:	
  6900  0457                     	movlw	low(07Fh)
  6901  0457  307F               	movwf	(??___fldiv+0)+0
  6902  0458  00BE               	movf	(??___fldiv+0)+0,w
  6903  0459  083E               	andwf	0+(___fldiv@b)+02h,f
  6904  045A  05BC               	line	181
  6905                           	
  6906                           l834:	
  6907  045B                     	line	182
  6908                           	movf	(___fldiv@bexp),w
  6909  045B  084E               	movwf	(??___fldiv+0)+0
  6910  045C  00BE               	clrc
  6911  045D  1003               	rrf	(??___fldiv+0)+0,w
  6912  045E  0C3E               	movwf	(??___fldiv+1)+0
  6913  045F  00BF               	movf	(??___fldiv+1)+0,w
  6914  0460  083F               	movwf	0+(___fldiv@b)+03h
  6915  0461  00BD               	line	183
  6916                           	movf	(___fldiv@sign),w
  6917  0462  0847               	movwf	(??___fldiv+0)+0
  6918  0463  00BE               	movf	(??___fldiv+0)+0,w
  6919  0464  083E               	iorwf	0+(___fldiv@b)+03h,f
  6920  0465  04BD               	line	184
  6921                           	
  6922                           l2100:	
  6923  0466                     	movf	(___fldiv@b+3),w
  6924  0466  083D               	movwf	(?___fldiv+3)
  6925  0467  00B9               	movf	(___fldiv@b+2),w
  6926  0468  083C               	movwf	(?___fldiv+2)
  6927  0469  00B8               	movf	(___fldiv@b+1),w
  6928  046A  083B               	movwf	(?___fldiv+1)
  6929  046B  00B7               	movf	(___fldiv@b),w
  6930  046C  083A               	movwf	(?___fldiv)
  6931  046D  00B6               
  6932                           	goto	l812
  6933  046E  2C6F               	
  6934                           l2102:	
  6935  046F                     	line	185
  6936                           	
  6937                           l812:	
  6938  046F                     	return
  6939  046F  0008               	opt stack 0
  6940                           GLOBAL	__end_of___fldiv
  6941                           	__end_of___fldiv:
  6942  0470                     	signat	___fldiv,8316
  6943                           	global	_PWM_Max_Duty
  6944                           
  6945 ;; *************** function _PWM_Max_Duty *****************
  6946 ;; Defined at:
  6947 ;;		line 401 in file "procedures.c"
  6948 ;; Parameters:    Size  Location     Type
  6949 ;;		None
  6950 ;; Auto vars:     Size  Location     Type
  6951 ;;		None
  6952 ;; Return value:  Size  Location     Type
  6953 ;;                  2    6[BANK0 ] int 
  6954 ;; Registers used:
  6955 ;;		wreg, status,2, status,0, pclath, cstack
  6956 ;; Tracked objects:
  6957 ;;		On entry : 0/0
  6958 ;;		On exit  : 0/0
  6959 ;;		Unchanged: 0/0
  6960 ;; Data sizes:     COMMON   BANK0   BANK1   BANK3   BANK2
  6961 ;;      Params:         0       2       0       0       0
  6962 ;;      Locals:         0       0       0       0       0
  6963 ;;      Temps:          4       0       0       0       0
  6964 ;;      Totals:         4       2       0       0       0
  6965 ;;Total ram usage:        6 bytes
  6966 ;; Hardware stack levels used:    1
  6967 ;; Hardware stack levels required when called:    1
  6968 ;; This function calls:
  6969 ;;		___aldiv
  6970 ;; This function is called by:
  6971 ;;		_PWM1_Duty
  6972 ;;		_PWM2_Duty
  6973 ;; This function uses a non-reentrant model
  6974 ;;
  6975                           psect	text16,local,class=CODE,delta=2,merge=1,group=0
  6976                           	file	"procedures.c"
  6977                           	line	401
  6978                           global __ptext16
  6979                           __ptext16:	;psect for function _PWM_Max_Duty
  6980  0A2F                     psect	text16
  6981                           	file	"procedures.c"
  6982                           	line	401
  6983                           	global	__size_of_PWM_Max_Duty
  6984                           	__size_of_PWM_Max_Duty	equ	__end_of_PWM_Max_Duty-_PWM_Max_Duty
  6985  0030                     	
  6986                           _PWM_Max_Duty:	
  6987  0A2F                     ;incstack = 0
  6988                           	opt	stack 3
  6989                           ; Regs used in _PWM_Max_Duty: [wreg+status,2+status,0+pclath+cstack]
  6990                           	line	403
  6991                           	
  6992                           l1922:	
  6993  0A2F                     ;procedures.c: 403:   return 20000000/(freq*4);
  6994                           	bsf	status, 5	;RP0=1, select bank1
  6995  0A2F  1683               	bcf	status, 6	;RP1=0, select bank1
  6996  0A30  1303               	movf	(_freq)^080h,w
  6997  0A31  0843               	movwf	(??_PWM_Max_Duty+0)+0
  6998  0A32  00F9               	movf	(_freq+1)^080h,w
  6999  0A33  0844               	movwf	((??_PWM_Max_Duty+0)+0+1)
  7000  0A34  00FA               	movf	(_freq+2)^080h,w
  7001  0A35  0845               	movwf	((??_PWM_Max_Duty+0)+0+2)
  7002  0A36  00FB               	movf	(_freq+3)^080h,w
  7003  0A37  0846               	movwf	((??_PWM_Max_Duty+0)+0+3)
  7004  0A38  00FC               	movlw	02h
  7005  0A39  3002               u1545:
  7006  0A3A                     	clrc
  7007  0A3A  1003               	rlf	(??_PWM_Max_Duty+0)+0,f
  7008  0A3B  0DF9               	rlf	(??_PWM_Max_Duty+0)+1,f
  7009  0A3C  0DFA               	rlf	(??_PWM_Max_Duty+0)+2,f
  7010  0A3D  0DFB               	rlf	(??_PWM_Max_Duty+0)+3,f
  7011  0A3E  0DFC               u1540:
  7012  0A3F                     	addlw	-1
  7013  0A3F  3EFF               	skipz
  7014  0A40  1D03               	goto	u1545
  7015  0A41  2A3A               	movf	3+(??_PWM_Max_Duty+0)+0,w
  7016  0A42  087C               	movwf	(___aldiv@divisor+3)
  7017  0A43  00F3               	movf	2+(??_PWM_Max_Duty+0)+0,w
  7018  0A44  087B               	movwf	(___aldiv@divisor+2)
  7019  0A45  00F2               	movf	1+(??_PWM_Max_Duty+0)+0,w
  7020  0A46  087A               	movwf	(___aldiv@divisor+1)
  7021  0A47  00F1               	movf	0+(??_PWM_Max_Duty+0)+0,w
  7022  0A48  0879               	movwf	(___aldiv@divisor)
  7023  0A49  00F0               
  7024                           	movlw	01h
  7025  0A4A  3001               	movwf	(___aldiv@dividend+3)
  7026  0A4B  00F7               	movlw	031h
  7027  0A4C  3031               	movwf	(___aldiv@dividend+2)
  7028  0A4D  00F6               	movlw	02Dh
  7029  0A4E  302D               	movwf	(___aldiv@dividend+1)
  7030  0A4F  00F5               	movlw	0
  7031  0A50  3000               	movwf	(___aldiv@dividend)
  7032  0A51  00F4               
  7033                           	fcall	___aldiv
  7034  0A52  120A  158A  24FC  120A  158A  	movf	(1+(?___aldiv)),w
  7035  0A57  0871               	bcf	status, 5	;RP0=0, select bank0
  7036  0A58  1283               	bcf	status, 6	;RP1=0, select bank0
  7037  0A59  1303               	movwf	(?_PWM_Max_Duty+1)
  7038  0A5A  00A7               	movf	(0+(?___aldiv)),w
  7039  0A5B  0870               	movwf	(?_PWM_Max_Duty)
  7040  0A5C  00A6               	goto	l349
  7041  0A5D  2A5E               	
  7042                           l1924:	
  7043  0A5E                     	line	404
  7044                           	
  7045                           l349:	
  7046  0A5E                     	return
  7047  0A5E  0008               	opt stack 0
  7048                           GLOBAL	__end_of_PWM_Max_Duty
  7049                           	__end_of_PWM_Max_Duty:
  7050  0A5F                     	signat	_PWM_Max_Duty,90
  7051                           	global	_analogRead
  7052                           
  7053 ;; *************** function _analogRead *****************
  7054 ;; Defined at:
  7055 ;;		line 283 in file "procedures.c"
  7056 ;; Parameters:    Size  Location     Type
  7057 ;;  channel         1    wreg     unsigned char 
  7058 ;; Auto vars:     Size  Location     Type
  7059 ;;  channel         1    4[COMMON] unsigned char 
  7060 ;; Return value:  Size  Location     Type
  7061 ;;                  2    0[COMMON] unsigned int 
  7062 ;; Registers used:
  7063 ;;		wreg, fsr0l, fsr0h, status,2, status,0
  7064 ;; Tracked objects:
  7065 ;;		On entry : 0/0
  7066 ;;		On exit  : 0/0
  7067 ;;		Unchanged: 0/0
  7068 ;; Data sizes:     COMMON   BANK0   BANK1   BANK3   BANK2
  7069 ;;      Params:         2       0       0       0       0
  7070 ;;      Locals:         1       0       0       0       0
  7071 ;;      Temps:          2       0       0       0       0
  7072 ;;      Totals:         5       0       0       0       0
  7073 ;;Total ram usage:        5 bytes
  7074 ;; Hardware stack levels used:    1
  7075 ;; This function calls:
  7076 ;;		Nothing
  7077 ;; This function is called by:
  7078 ;;		_loop
  7079 ;; This function uses a non-reentrant model
  7080 ;;
  7081                           psect	text17,local,class=CODE,delta=2,merge=1,group=0
  7082                           	line	283
  7083                           global __ptext17
  7084                           __ptext17:	;psect for function _analogRead
  7085  0B40                     psect	text17
  7086                           	file	"procedures.c"
  7087                           	line	283
  7088                           	global	__size_of_analogRead
  7089                           	__size_of_analogRead	equ	__end_of_analogRead-_analogRead
  7090  007E                     	
  7091                           _analogRead:	
  7092  0B40                     ;incstack = 0
  7093                           	opt	stack 6
  7094                           ; Regs used in _analogRead: [wreg-fsr0h+status,2+status,0]
  7095                           ;analogRead@channel stored from wreg
  7096                           	movwf	(analogRead@channel)
  7097  0B40  00F4               	line	285
  7098                           	
  7099                           l2416:	
  7100  0B41                     ;procedures.c: 283: unsigned int analogRead(char channel);procedures.c: 284: {;procedure
                                 s.c: 285:     switch(channel)
  7101                           	goto	l2460
  7102  0B41  2BA4               	line	287
  7103                           ;procedures.c: 286:     {;procedures.c: 287:         case 0:
  7104                           	
  7105                           l276:	
  7106  0B42                     	line	288
  7107                           	
  7108                           l2418:	
  7109  0B42                     ;procedures.c: 288:             ADCON0 &= 0x45;
  7110                           	movlw	low(045h)
  7111  0B42  3045               	movwf	(??_analogRead+0)+0
  7112  0B43  00F2               	movf	(??_analogRead+0)+0,w
  7113  0B44  0872               	bcf	status, 5	;RP0=0, select bank0
  7114  0B45  1283               	bcf	status, 6	;RP1=0, select bank0
  7115  0B46  1303               	andwf	(31),f	;volatile
  7116  0B47  059F               	line	289
  7117                           ;procedures.c: 289:             while(ADCON0bits.GO_nDONE != 0)
  7118                           	goto	l277
  7119  0B48  2B49               	
  7120                           l278:	
  7121  0B49                     	line	291
  7122                           ;procedures.c: 290:             {;procedures.c: 291:             }
  7123                           	
  7124                           l277:	
  7125  0B49                     	line	289
  7126                           ;procedures.c: 289:             while(ADCON0bits.GO_nDONE != 0)
  7127                           	btfsc	(31),2	;volatile
  7128  0B49  191F               	goto	u2601
  7129  0B4A  2B4C               	goto	u2600
  7130  0B4B  2B4D               u2601:
  7131  0B4C                     	goto	l277
  7132  0B4C  2B49               u2600:
  7133  0B4D                     	goto	l2420
  7134  0B4D  2B4E               	
  7135                           l279:	
  7136  0B4E                     	line	292
  7137                           	
  7138                           l2420:	
  7139  0B4E                     ;procedures.c: 292:             return (ADRESH << 8)+ ADRESL;
  7140                           	movf	(30),w	;volatile
  7141  0B4E  081E               	movwf	(?_analogRead+1)
  7142  0B4F  00F1               	bsf	status, 5	;RP0=1, select bank1
  7143  0B50  1683               	bcf	status, 6	;RP1=0, select bank1
  7144  0B51  1303               	movf	(158)^080h,w	;volatile
  7145  0B52  081E               	movwf	(?_analogRead)
  7146  0B53  00F0               	goto	l280
  7147  0B54  2BBD               	
  7148                           l2422:	
  7149  0B55                     	goto	l280
  7150  0B55  2BBD               	line	293
  7151                           	
  7152                           l2424:	
  7153  0B56                     ;procedures.c: 293:             break;
  7154                           	goto	l280
  7155  0B56  2BBD               	line	294
  7156                           ;procedures.c: 294:         case 1:
  7157                           	
  7158                           l282:	
  7159  0B57                     	line	295
  7160                           	
  7161                           l2426:	
  7162  0B57                     ;procedures.c: 295:             ADCON0 = 0x4D;
  7163                           	movlw	low(04Dh)
  7164  0B57  304D               	bcf	status, 5	;RP0=0, select bank0
  7165  0B58  1283               	bcf	status, 6	;RP1=0, select bank0
  7166  0B59  1303               	movwf	(31)	;volatile
  7167  0B5A  009F               	line	296
  7168                           ;procedures.c: 296:             while(ADCON0bits.GO_nDONE != 0)
  7169                           	goto	l283
  7170  0B5B  2B5C               	
  7171                           l284:	
  7172  0B5C                     	line	299
  7173                           ;procedures.c: 297:             {;procedures.c: 299:             }
  7174                           	
  7175                           l283:	
  7176  0B5C                     	line	296
  7177                           ;procedures.c: 296:             while(ADCON0bits.GO_nDONE != 0)
  7178                           	btfsc	(31),2	;volatile
  7179  0B5C  191F               	goto	u2611
  7180  0B5D  2B5F               	goto	u2610
  7181  0B5E  2B60               u2611:
  7182  0B5F                     	goto	l283
  7183  0B5F  2B5C               u2610:
  7184  0B60                     	goto	l2428
  7185  0B60  2B61               	
  7186                           l285:	
  7187  0B61                     	line	300
  7188                           	
  7189                           l2428:	
  7190  0B61                     ;procedures.c: 300:             return (ADRESH << 8)+ ADRESL;
  7191                           	movf	(30),w	;volatile
  7192  0B61  081E               	movwf	(?_analogRead+1)
  7193  0B62  00F1               	bsf	status, 5	;RP0=1, select bank1
  7194  0B63  1683               	bcf	status, 6	;RP1=0, select bank1
  7195  0B64  1303               	movf	(158)^080h,w	;volatile
  7196  0B65  081E               	movwf	(?_analogRead)
  7197  0B66  00F0               	goto	l280
  7198  0B67  2BBD               	
  7199                           l2430:	
  7200  0B68                     	goto	l280
  7201  0B68  2BBD               	line	301
  7202                           	
  7203                           l2432:	
  7204  0B69                     ;procedures.c: 301:             break;
  7205                           	goto	l280
  7206  0B69  2BBD               	line	302
  7207                           ;procedures.c: 302:         case 2:
  7208                           	
  7209                           l286:	
  7210  0B6A                     	line	303
  7211                           	
  7212                           l2434:	
  7213  0B6A                     ;procedures.c: 303:             ADCON0 = 0x55;
  7214                           	movlw	low(055h)
  7215  0B6A  3055               	bcf	status, 5	;RP0=0, select bank0
  7216  0B6B  1283               	bcf	status, 6	;RP1=0, select bank0
  7217  0B6C  1303               	movwf	(31)	;volatile
  7218  0B6D  009F               	line	304
  7219                           ;procedures.c: 304:             while(ADCON0bits.GO_nDONE != 0)
  7220                           	goto	l287
  7221  0B6E  2B6F               	
  7222                           l288:	
  7223  0B6F                     	line	306
  7224                           ;procedures.c: 305:             {;procedures.c: 306:             }
  7225                           	
  7226                           l287:	
  7227  0B6F                     	line	304
  7228                           ;procedures.c: 304:             while(ADCON0bits.GO_nDONE != 0)
  7229                           	btfsc	(31),2	;volatile
  7230  0B6F  191F               	goto	u2621
  7231  0B70  2B72               	goto	u2620
  7232  0B71  2B73               u2621:
  7233  0B72                     	goto	l287
  7234  0B72  2B6F               u2620:
  7235  0B73                     	goto	l2436
  7236  0B73  2B74               	
  7237                           l289:	
  7238  0B74                     	line	307
  7239                           	
  7240                           l2436:	
  7241  0B74                     ;procedures.c: 307:             return (ADRESH << 8)+ ADRESL;
  7242                           	movf	(30),w	;volatile
  7243  0B74  081E               	movwf	(?_analogRead+1)
  7244  0B75  00F1               	bsf	status, 5	;RP0=1, select bank1
  7245  0B76  1683               	bcf	status, 6	;RP1=0, select bank1
  7246  0B77  1303               	movf	(158)^080h,w	;volatile
  7247  0B78  081E               	movwf	(?_analogRead)
  7248  0B79  00F0               	goto	l280
  7249  0B7A  2BBD               	
  7250                           l2438:	
  7251  0B7B                     	goto	l280
  7252  0B7B  2BBD               	line	308
  7253                           	
  7254                           l2440:	
  7255  0B7C                     ;procedures.c: 308:             break;
  7256                           	goto	l280
  7257  0B7C  2BBD               	line	309
  7258                           ;procedures.c: 309:         case 3:
  7259                           	
  7260                           l290:	
  7261  0B7D                     	line	310
  7262                           	
  7263                           l2442:	
  7264  0B7D                     ;procedures.c: 310:             ADCON0 = 0x5D;
  7265                           	movlw	low(05Dh)
  7266  0B7D  305D               	bcf	status, 5	;RP0=0, select bank0
  7267  0B7E  1283               	bcf	status, 6	;RP1=0, select bank0
  7268  0B7F  1303               	movwf	(31)	;volatile
  7269  0B80  009F               	line	311
  7270                           ;procedures.c: 311:             while(ADCON0bits.GO_nDONE != 0)
  7271                           	goto	l291
  7272  0B81  2B82               	
  7273                           l292:	
  7274  0B82                     	line	313
  7275                           ;procedures.c: 312:             {;procedures.c: 313:             }
  7276                           	
  7277                           l291:	
  7278  0B82                     	line	311
  7279                           ;procedures.c: 311:             while(ADCON0bits.GO_nDONE != 0)
  7280                           	btfsc	(31),2	;volatile
  7281  0B82  191F               	goto	u2631
  7282  0B83  2B85               	goto	u2630
  7283  0B84  2B86               u2631:
  7284  0B85                     	goto	l291
  7285  0B85  2B82               u2630:
  7286  0B86                     	goto	l2444
  7287  0B86  2B87               	
  7288                           l293:	
  7289  0B87                     	line	314
  7290                           	
  7291                           l2444:	
  7292  0B87                     ;procedures.c: 314:             return (ADRESH << 8)+ ADRESL;
  7293                           	movf	(30),w	;volatile
  7294  0B87  081E               	movwf	(?_analogRead+1)
  7295  0B88  00F1               	bsf	status, 5	;RP0=1, select bank1
  7296  0B89  1683               	bcf	status, 6	;RP1=0, select bank1
  7297  0B8A  1303               	movf	(158)^080h,w	;volatile
  7298  0B8B  081E               	movwf	(?_analogRead)
  7299  0B8C  00F0               	goto	l280
  7300  0B8D  2BBD               	
  7301                           l2446:	
  7302  0B8E                     	goto	l280
  7303  0B8E  2BBD               	line	315
  7304                           	
  7305                           l2448:	
  7306  0B8F                     ;procedures.c: 315:             break;
  7307                           	goto	l280
  7308  0B8F  2BBD               	line	316
  7309                           ;procedures.c: 316:         case 4:
  7310                           	
  7311                           l294:	
  7312  0B90                     	line	317
  7313                           	
  7314                           l2450:	
  7315  0B90                     ;procedures.c: 317:             ADCON0 = 0x65;
  7316                           	movlw	low(065h)
  7317  0B90  3065               	bcf	status, 5	;RP0=0, select bank0
  7318  0B91  1283               	bcf	status, 6	;RP1=0, select bank0
  7319  0B92  1303               	movwf	(31)	;volatile
  7320  0B93  009F               	line	318
  7321                           ;procedures.c: 318:             while(ADCON0bits.GO_nDONE != 0)
  7322                           	goto	l295
  7323  0B94  2B95               	
  7324                           l296:	
  7325  0B95                     	line	320
  7326                           ;procedures.c: 319:             {;procedures.c: 320:             }
  7327                           	
  7328                           l295:	
  7329  0B95                     	line	318
  7330                           ;procedures.c: 318:             while(ADCON0bits.GO_nDONE != 0)
  7331                           	btfsc	(31),2	;volatile
  7332  0B95  191F               	goto	u2641
  7333  0B96  2B98               	goto	u2640
  7334  0B97  2B99               u2641:
  7335  0B98                     	goto	l295
  7336  0B98  2B95               u2640:
  7337  0B99                     	goto	l2452
  7338  0B99  2B9A               	
  7339                           l297:	
  7340  0B9A                     	line	321
  7341                           	
  7342                           l2452:	
  7343  0B9A                     ;procedures.c: 321:             return (ADRESH << 8)+ ADRESL;
  7344                           	movf	(30),w	;volatile
  7345  0B9A  081E               	movwf	(?_analogRead+1)
  7346  0B9B  00F1               	bsf	status, 5	;RP0=1, select bank1
  7347  0B9C  1683               	bcf	status, 6	;RP1=0, select bank1
  7348  0B9D  1303               	movf	(158)^080h,w	;volatile
  7349  0B9E  081E               	movwf	(?_analogRead)
  7350  0B9F  00F0               	goto	l280
  7351  0BA0  2BBD               	
  7352                           l2454:	
  7353  0BA1                     	goto	l280
  7354  0BA1  2BBD               	line	322
  7355                           	
  7356                           l2456:	
  7357  0BA2                     ;procedures.c: 322:             break;
  7358                           	goto	l280
  7359  0BA2  2BBD               	line	323
  7360                           	
  7361                           l2458:	
  7362  0BA3                     ;procedures.c: 323:     }
  7363                           	goto	l280
  7364  0BA3  2BBD               	
  7365                           l275:	
  7366  0BA4                     	
  7367                           l2460:	
  7368  0BA4                     	movf	(analogRead@channel),w
  7369  0BA4  0874               	movwf	(??_analogRead+0)+0
  7370  0BA5  00F2               	clrf	(??_analogRead+0)+0+1
  7371  0BA6  01F3               	; Switch on 2 bytes has been partitioned into a top level switch of size 1, and 1 sub-s
                                 witches
  7372                           ; Switch size 1, requested type "space"
  7373                           ; Number of cases is 1, Range of values is 0 to 0
  7374                           ; switch strategies available:
  7375                           ; Name         Instructions Cycles
  7376                           ; simple_byte            4     3 (average)
  7377                           ; direct_byte           11     8 (fixed)
  7378                           ; jumptable            260     6 (fixed)
  7379                           ;	Chosen strategy is simple_byte
  7380                           
  7381                           	movf 1+(??_analogRead+0)+0,w
  7382  0BA7  0873               	opt asmopt_push
  7383                           	opt asmopt_off
  7384                           	xorlw	0^0	; case 0
  7385  0BA8  3A00               	skipnz
  7386  0BA9  1903               	goto	l2654
  7387  0BAA  2BAC               	goto	l280
  7388  0BAB  2BBD               	opt asmopt_pop
  7389                           	
  7390                           l2654:	
  7391  0BAC                     ; Switch size 1, requested type "space"
  7392                           ; Number of cases is 5, Range of values is 0 to 4
  7393                           ; switch strategies available:
  7394                           ; Name         Instructions Cycles
  7395                           ; simple_byte           16     9 (average)
  7396                           ; direct_byte           23     8 (fixed)
  7397                           ; jumptable            260     6 (fixed)
  7398                           ;	Chosen strategy is simple_byte
  7399                           
  7400                           	movf 0+(??_analogRead+0)+0,w
  7401  0BAC  0872               	opt asmopt_push
  7402                           	opt asmopt_off
  7403                           	xorlw	0^0	; case 0
  7404  0BAD  3A00               	skipnz
  7405  0BAE  1903               	goto	l2418
  7406  0BAF  2B42               	xorlw	1^0	; case 1
  7407  0BB0  3A01               	skipnz
  7408  0BB1  1903               	goto	l2426
  7409  0BB2  2B57               	xorlw	2^1	; case 2
  7410  0BB3  3A03               	skipnz
  7411  0BB4  1903               	goto	l2434
  7412  0BB5  2B6A               	xorlw	3^2	; case 3
  7413  0BB6  3A01               	skipnz
  7414  0BB7  1903               	goto	l2442
  7415  0BB8  2B7D               	xorlw	4^3	; case 4
  7416  0BB9  3A07               	skipnz
  7417  0BBA  1903               	goto	l2450
  7418  0BBB  2B90               	goto	l280
  7419  0BBC  2BBD               	opt asmopt_pop
  7420                           
  7421                           	
  7422                           l281:	
  7423  0BBD                     	line	324
  7424                           	
  7425                           l280:	
  7426  0BBD                     	return
  7427  0BBD  0008               	opt stack 0
  7428                           GLOBAL	__end_of_analogRead
  7429                           	__end_of_analogRead:
  7430  0BBE                     	signat	_analogRead,4218
  7431                           	global	_SerialWrite
  7432                           
  7433 ;; *************** function _SerialWrite *****************
  7434 ;; Defined at:
  7435 ;;		line 371 in file "procedures.c"
  7436 ;; Parameters:    Size  Location     Type
  7437 ;;  data            1    wreg     unsigned char 
  7438 ;; Auto vars:     Size  Location     Type
  7439 ;;  data            1    0[COMMON] unsigned char 
  7440 ;; Return value:  Size  Location     Type
  7441 ;;                  1    wreg      void 
  7442 ;; Registers used:
  7443 ;;		wreg
  7444 ;; Tracked objects:
  7445 ;;		On entry : 0/0
  7446 ;;		On exit  : 0/0
  7447 ;;		Unchanged: 0/0
  7448 ;; Data sizes:     COMMON   BANK0   BANK1   BANK3   BANK2
  7449 ;;      Params:         0       0       0       0       0
  7450 ;;      Locals:         1       0       0       0       0
  7451 ;;      Temps:          0       0       0       0       0
  7452 ;;      Totals:         1       0       0       0       0
  7453 ;;Total ram usage:        1 bytes
  7454 ;; Hardware stack levels used:    1
  7455 ;; This function calls:
  7456 ;;		Nothing
  7457 ;; This function is called by:
  7458 ;;		_loop
  7459 ;;		_SerialWriteText
  7460 ;; This function uses a non-reentrant model
  7461 ;;
  7462                           psect	text18,local,class=CODE,delta=2,merge=1,group=0
  7463                           	line	371
  7464                           global __ptext18
  7465                           __ptext18:	;psect for function _SerialWrite
  7466  0005                     psect	text18
  7467                           	file	"procedures.c"
  7468                           	line	371
  7469                           	global	__size_of_SerialWrite
  7470                           	__size_of_SerialWrite	equ	__end_of_SerialWrite-_SerialWrite
  7471  000E                     	
  7472                           _SerialWrite:	
  7473  0005                     ;incstack = 0
  7474                           	opt	stack 6
  7475                           ; Regs used in _SerialWrite: [wreg]
  7476                           ;SerialWrite@data stored from wreg
  7477                           	movwf	(SerialWrite@data)
  7478  0005  00F0               	line	373
  7479                           	
  7480                           l2484:	
  7481  0006                     ;procedures.c: 371: void SerialWrite(char data);procedures.c: 372: {;procedures.c: 373: 
                                   while(!TRMT);
  7482                           	goto	l319
  7483  0006  2807               	
  7484                           l320:	
  7485  0007                     	
  7486                           l319:	
  7487  0007                     	bsf	status, 5	;RP0=1, select bank1
  7488  0007  1683               	bcf	status, 6	;RP1=0, select bank1
  7489  0008  1303               	btfss	(1217/8)^080h,(1217)&7	;volatile
  7490  0009  1C98               	goto	u2671
  7491  000A  280C               	goto	u2670
  7492  000B  280D               u2671:
  7493  000C                     	goto	l319
  7494  000C  2807               u2670:
  7495  000D                     	goto	l2486
  7496  000D  280E               	
  7497                           l321:	
  7498  000E                     	line	374
  7499                           	
  7500                           l2486:	
  7501  000E                     ;procedures.c: 374:   TXREG = data;
  7502                           	movf	(SerialWrite@data),w
  7503  000E  0870               	bcf	status, 5	;RP0=0, select bank0
  7504  000F  1283               	bcf	status, 6	;RP1=0, select bank0
  7505  0010  1303               	movwf	(25)	;volatile
  7506  0011  0099               	line	375
  7507                           	
  7508                           l322:	
  7509  0012                     	return
  7510  0012  0008               	opt stack 0
  7511                           GLOBAL	__end_of_SerialWrite
  7512                           	__end_of_SerialWrite:
  7513  0013                     	signat	_SerialWrite,4217
  7514                           	global	_SerialRead
  7515                           
  7516 ;; *************** function _SerialRead *****************
  7517 ;; Defined at:
  7518 ;;		line 390 in file "procedures.c"
  7519 ;; Parameters:    Size  Location     Type
  7520 ;;		None
  7521 ;; Auto vars:     Size  Location     Type
  7522 ;;		None
  7523 ;; Return value:  Size  Location     Type
  7524 ;;                  1    wreg      unsigned char 
  7525 ;; Registers used:
  7526 ;;		wreg
  7527 ;; Tracked objects:
  7528 ;;		On entry : 0/0
  7529 ;;		On exit  : 0/0
  7530 ;;		Unchanged: 0/0
  7531 ;; Data sizes:     COMMON   BANK0   BANK1   BANK3   BANK2
  7532 ;;      Params:         0       0       0       0       0
  7533 ;;      Locals:         0       0       0       0       0
  7534 ;;      Temps:          0       0       0       0       0
  7535 ;;      Totals:         0       0       0       0       0
  7536 ;;Total ram usage:        0 bytes
  7537 ;; Hardware stack levels used:    1
  7538 ;; This function calls:
  7539 ;;		Nothing
  7540 ;; This function is called by:
  7541 ;;		_loop
  7542 ;;		_SerialReadText
  7543 ;; This function uses a non-reentrant model
  7544 ;;
  7545                           psect	text19,local,class=CODE,delta=2,merge=1,group=0
  7546                           	line	390
  7547                           global __ptext19
  7548                           __ptext19:	;psect for function _SerialRead
  7549  0966                     psect	text19
  7550                           	file	"procedures.c"
  7551                           	line	390
  7552                           	global	__size_of_SerialRead
  7553                           	__size_of_SerialRead	equ	__end_of_SerialRead-_SerialRead
  7554  000B                     	
  7555                           _SerialRead:	
  7556  0966                     ;incstack = 0
  7557                           	opt	stack 6
  7558                           ; Regs used in _SerialRead: [wreg]
  7559                           	line	392
  7560                           	
  7561                           l2396:	
  7562  0966                     ;procedures.c: 392:   while(!RCIF);
  7563                           	goto	l337
  7564  0966  2967               	
  7565                           l338:	
  7566  0967                     	
  7567                           l337:	
  7568  0967                     	bcf	status, 5	;RP0=0, select bank0
  7569  0967  1283               	bcf	status, 6	;RP1=0, select bank0
  7570  0968  1303               	btfss	(101/8),(101)&7	;volatile
  7571  0969  1E8C               	goto	u2591
  7572  096A  296C               	goto	u2590
  7573  096B  296D               u2591:
  7574  096C                     	goto	l337
  7575  096C  2967               u2590:
  7576  096D                     	goto	l2398
  7577  096D  296E               	
  7578                           l339:	
  7579  096E                     	line	393
  7580                           	
  7581                           l2398:	
  7582  096E                     ;procedures.c: 393:   return RCREG;
  7583                           	movf	(26),w	;volatile
  7584  096E  081A               	goto	l340
  7585  096F  2970               	
  7586                           l2400:	
  7587  0970                     	line	394
  7588                           	
  7589                           l340:	
  7590  0970                     	return
  7591  0970  0008               	opt stack 0
  7592                           GLOBAL	__end_of_SerialRead
  7593                           	__end_of_SerialRead:
  7594  0971                     	signat	_SerialRead,89
  7595                           	global	_SerialAvailable
  7596                           
  7597 ;; *************** function _SerialAvailable *****************
  7598 ;; Defined at:
  7599 ;;		line 380 in file "procedures.c"
  7600 ;; Parameters:    Size  Location     Type
  7601 ;;		None
  7602 ;; Auto vars:     Size  Location     Type
  7603 ;;		None
  7604 ;; Return value:  Size  Location     Type
  7605 ;;                  1    wreg      unsigned char 
  7606 ;; Registers used:
  7607 ;;		wreg
  7608 ;; Tracked objects:
  7609 ;;		On entry : 0/0
  7610 ;;		On exit  : 0/0
  7611 ;;		Unchanged: 0/0
  7612 ;; Data sizes:     COMMON   BANK0   BANK1   BANK3   BANK2
  7613 ;;      Params:         0       0       0       0       0
  7614 ;;      Locals:         0       0       0       0       0
  7615 ;;      Temps:          0       0       0       0       0
  7616 ;;      Totals:         0       0       0       0       0
  7617 ;;Total ram usage:        0 bytes
  7618 ;; Hardware stack levels used:    1
  7619 ;; This function calls:
  7620 ;;		Nothing
  7621 ;; This function is called by:
  7622 ;;		_loop
  7623 ;; This function uses a non-reentrant model
  7624 ;;
  7625                           psect	text20,local,class=CODE,delta=2,merge=1,group=0
  7626                           	line	380
  7627                           global __ptext20
  7628                           __ptext20:	;psect for function _SerialAvailable
  7629  0941                     psect	text20
  7630                           	file	"procedures.c"
  7631                           	line	380
  7632                           	global	__size_of_SerialAvailable
  7633                           	__size_of_SerialAvailable	equ	__end_of_SerialAvailable-_SerialAvailable
  7634  0007                     	
  7635                           _SerialAvailable:	
  7636  0941                     ;incstack = 0
  7637                           	opt	stack 6
  7638                           ; Regs used in _SerialAvailable: [wreg]
  7639                           	line	382
  7640                           	
  7641                           l2392:	
  7642  0941                     ;procedures.c: 382:   return RCIF;
  7643                           	movlw	0
  7644  0941  3000               	bcf	status, 5	;RP0=0, select bank0
  7645  0942  1283               	bcf	status, 6	;RP1=0, select bank0
  7646  0943  1303               	btfsc	(101/8),(101)&7	;volatile
  7647  0944  1A8C               	movlw	1
  7648  0945  3001               	goto	l328
  7649  0946  2947               	
  7650                           l2394:	
  7651  0947                     	line	383
  7652                           	
  7653                           l328:	
  7654  0947                     	return
  7655  0947  0008               	opt stack 0
  7656                           GLOBAL	__end_of_SerialAvailable
  7657                           	__end_of_SerialAvailable:
  7658  0948                     	signat	_SerialAvailable,89
  7659                           	global	_configuracionInicial
  7660                           
  7661 ;; *************** function _configuracionInicial *****************
  7662 ;; Defined at:
  7663 ;;		line 17 in file "procedures.c"
  7664 ;; Parameters:    Size  Location     Type
  7665 ;;		None
  7666 ;; Auto vars:     Size  Location     Type
  7667 ;;		None
  7668 ;; Return value:  Size  Location     Type
  7669 ;;                  1    wreg      void 
  7670 ;; Registers used:
  7671 ;;		wreg, status,2, status,0, pclath, cstack
  7672 ;; Tracked objects:
  7673 ;;		On entry : 0/0
  7674 ;;		On exit  : 0/0
  7675 ;;		Unchanged: 0/0
  7676 ;; Data sizes:     COMMON   BANK0   BANK1   BANK3   BANK2
  7677 ;;      Params:         0       0       0       0       0
  7678 ;;      Locals:         0       0       0       0       0
  7679 ;;      Temps:          0       0       0       0       0
  7680 ;;      Totals:         0       0       0       0       0
  7681 ;;Total ram usage:        0 bytes
  7682 ;; Hardware stack levels used:    1
  7683 ;; Hardware stack levels required when called:    2
  7684 ;; This function calls:
  7685 ;;		_PWM1_Init
  7686 ;;		_PWM1_Start
  7687 ;;		_PWM2_Init
  7688 ;;		_PWM2_Start
  7689 ;; This function is called by:
  7690 ;;		_main
  7691 ;; This function uses a non-reentrant model
  7692 ;;
  7693                           psect	text21,local,class=CODE,delta=2,merge=1,group=0
  7694                           	line	17
  7695                           global __ptext21
  7696                           __ptext21:	;psect for function _configuracionInicial
  7697  0A5F                     psect	text21
  7698                           	file	"procedures.c"
  7699                           	line	17
  7700                           	global	__size_of_configuracionInicial
  7701                           	__size_of_configuracionInicial	equ	__end_of_configuracionInicial-_configuracionInicial

  7702  0044                     	
  7703                           _configuracionInicial:	
  7704  0A5F                     ;incstack = 0
  7705                           	opt	stack 5
  7706                           ; Regs used in _configuracionInicial: [wreg+status,2+status,0+pclath+cstack]
  7707                           	line	20
  7708                           	
  7709                           l2554:	
  7710  0A5F                     ;procedures.c: 20:     ADCON0 = 0x41;
  7711                           	movlw	low(041h)
  7712  0A5F  3041               	bcf	status, 5	;RP0=0, select bank0
  7713  0A60  1283               	bcf	status, 6	;RP1=0, select bank0
  7714  0A61  1303               	movwf	(31)	;volatile
  7715  0A62  009F               	line	21
  7716                           ;procedures.c: 21:     ADCON1 = 0x82;
  7717                           	movlw	low(082h)
  7718  0A63  3082               	bsf	status, 5	;RP0=1, select bank1
  7719  0A64  1683               	bcf	status, 6	;RP1=0, select bank1
  7720  0A65  1303               	movwf	(159)^080h	;volatile
  7721  0A66  009F               	line	23
  7722                           # 23 "procedures.c"
  7723                           CLRF PORTA ;# 
  7724  0A67  0185               	line	24
  7725                           # 24 "procedures.c"
  7726                           MOVLW 0x3F ;# 
  7727  0A68  303F               	line	25
  7728                           # 25 "procedures.c"
  7729                           MOVWF TRISA ;# 
  7730  0A69  0085               	line	27
  7731                           # 27 "procedures.c"
  7732                           CLRF PORTB ;# 
  7733  0A6A  0186               	line	28
  7734                           # 28 "procedures.c"
  7735                           MOVLW 0xFF ;# 
  7736  0A6B  30FF               	line	29
  7737                           # 29 "procedures.c"
  7738                           MOVWF TRISB ;# 
  7739  0A6C  0086               	line	31
  7740                           # 31 "procedures.c"
  7741                           CLRF PORTC ;# 
  7742  0A6D  0187               	line	32
  7743                           # 32 "procedures.c"
  7744                           MOVLW 0xFF ;# 
  7745  0A6E  30FF               	line	33
  7746                           # 33 "procedures.c"
  7747                           MOVWF TRISC ;# 
  7748  0A6F  0087               	line	35
  7749                           # 35 "procedures.c"
  7750                           CLRF PORTD ;# 
  7751  0A70  0188               	line	36
  7752                           # 36 "procedures.c"
  7753                           MOVLW 0xFF ;# 
  7754  0A71  30FF               	line	37
  7755                           # 37 "procedures.c"
  7756                           MOVF TRISD ;# 
  7757  0A72  0888               psect	text21
  7758                           	line	38
  7759                           	
  7760                           l2556:	
  7761  0A73                     ;procedures.c: 38:     PORTE = 0x00;
  7762                           	bcf	status, 5	;RP0=0, select bank0
  7763  0A73  1283               	bcf	status, 6	;RP1=0, select bank0
  7764  0A74  1303               	clrf	(9)	;volatile
  7765  0A75  0189               	line	39
  7766                           	
  7767                           l2558:	
  7768  0A76                     ;procedures.c: 39:     TRISE = 0x07;
  7769                           	movlw	low(07h)
  7770  0A76  3007               	bsf	status, 5	;RP0=1, select bank1
  7771  0A77  1683               	bcf	status, 6	;RP1=0, select bank1
  7772  0A78  1303               	movwf	(137)^080h	;volatile
  7773  0A79  0089               	line	40
  7774                           	
  7775                           l2560:	
  7776  0A7A                     ;procedures.c: 40:     PWM1_Init(1500);
  7777                           	movlw	0
  7778  0A7A  3000               	bcf	status, 5	;RP0=0, select bank0
  7779  0A7B  1283               	bcf	status, 6	;RP1=0, select bank0
  7780  0A7C  1303               	movwf	(PWM1_Init@fre+3)
  7781  0A7D  00A9               	movlw	0
  7782  0A7E  3000               	movwf	(PWM1_Init@fre+2)
  7783  0A7F  00A8               	movlw	05h
  7784  0A80  3005               	movwf	(PWM1_Init@fre+1)
  7785  0A81  00A7               	movlw	0DCh
  7786  0A82  30DC               	movwf	(PWM1_Init@fre)
  7787  0A83  00A6               
  7788                           	fcall	_PWM1_Init
  7789  0A84  120A  158A  22F1  120A  158A  	line	41
  7790                           	
  7791                           l2562:	
  7792  0A89                     ;procedures.c: 41:     PWM2_Init(1500);
  7793                           	movlw	0
  7794  0A89  3000               	bcf	status, 5	;RP0=0, select bank0
  7795  0A8A  1283               	bcf	status, 6	;RP1=0, select bank0
  7796  0A8B  1303               	movwf	(PWM2_Init@fre+3)
  7797  0A8C  00A9               	movlw	0
  7798  0A8D  3000               	movwf	(PWM2_Init@fre+2)
  7799  0A8E  00A8               	movlw	05h
  7800  0A8F  3005               	movwf	(PWM2_Init@fre+1)
  7801  0A90  00A7               	movlw	0DCh
  7802  0A91  30DC               	movwf	(PWM2_Init@fre)
  7803  0A92  00A6               
  7804                           	fcall	_PWM2_Init
  7805  0A93  120A  118A  2013  120A  158A  	line	42
  7806                           	
  7807                           l2564:	
  7808  0A98                     ;procedures.c: 42:     PWM1_Start();
  7809                           	fcall	_PWM1_Start
  7810  0A98  120A  158A  2150  120A  158A  	line	43
  7811                           	
  7812                           l2566:	
  7813  0A9D                     ;procedures.c: 43:     PWM2_Start();
  7814                           	fcall	_PWM2_Start
  7815  0A9D  120A  158A  215B  120A  158A  	line	45
  7816                           	
  7817                           l185:	
  7818  0AA2                     	return
  7819  0AA2  0008               	opt stack 0
  7820                           GLOBAL	__end_of_configuracionInicial
  7821                           	__end_of_configuracionInicial:
  7822  0AA3                     	signat	_configuracionInicial,89
  7823                           	global	_PWM2_Start
  7824                           
  7825 ;; *************** function _PWM2_Start *****************
  7826 ;; Defined at:
  7827 ;;		line 464 in file "procedures.c"
  7828 ;; Parameters:    Size  Location     Type
  7829 ;;		None
  7830 ;; Auto vars:     Size  Location     Type
  7831 ;;		None
  7832 ;; Return value:  Size  Location     Type
  7833 ;;                  1    wreg      void 
  7834 ;; Registers used:
  7835 ;;		None
  7836 ;; Tracked objects:
  7837 ;;		On entry : 0/0
  7838 ;;		On exit  : 0/0
  7839 ;;		Unchanged: 0/0
  7840 ;; Data sizes:     COMMON   BANK0   BANK1   BANK3   BANK2
  7841 ;;      Params:         0       0       0       0       0
  7842 ;;      Locals:         0       0       0       0       0
  7843 ;;      Temps:          0       0       0       0       0
  7844 ;;      Totals:         0       0       0       0       0
  7845 ;;Total ram usage:        0 bytes
  7846 ;; Hardware stack levels used:    1
  7847 ;; This function calls:
  7848 ;;		Nothing
  7849 ;; This function is called by:
  7850 ;;		_configuracionInicial
  7851 ;; This function uses a non-reentrant model
  7852 ;;
  7853                           psect	text22,local,class=CODE,delta=2,merge=1,group=0
  7854                           	line	464
  7855                           global __ptext22
  7856                           __ptext22:	;psect for function _PWM2_Start
  7857  095B                     psect	text22
  7858                           	file	"procedures.c"
  7859                           	line	464
  7860                           	global	__size_of_PWM2_Start
  7861                           	__size_of_PWM2_Start	equ	__end_of_PWM2_Start-_PWM2_Start
  7862  000B                     	
  7863                           _PWM2_Start:	
  7864  095B                     ;incstack = 0
  7865                           	opt	stack 6
  7866                           ; Regs used in _PWM2_Start: []
  7867                           	line	466
  7868                           	
  7869                           l1598:	
  7870  095B                     ;procedures.c: 466:   CCP2M3 = 1;
  7871                           	bcf	status, 5	;RP0=0, select bank0
  7872  095B  1283               	bcf	status, 6	;RP1=0, select bank0
  7873  095C  1303               	bsf	(235/8),(235)&7	;volatile
  7874  095D  159D               	line	467
  7875                           ;procedures.c: 467:   CCP2M2 = 1;
  7876                           	bsf	(234/8),(234)&7	;volatile
  7877  095E  151D               	line	472
  7878                           ;procedures.c: 472:     T2CKPS0 = 1;
  7879                           	bsf	(144/8),(144)&7	;volatile
  7880  095F  1412               	line	473
  7881                           ;procedures.c: 473:     T2CKPS1 = 0;
  7882                           	bcf	(145/8),(145)&7	;volatile
  7883  0960  1092               	line	478
  7884                           ;procedures.c: 478:     TMR2ON = 1;
  7885                           	bsf	(146/8),(146)&7	;volatile
  7886  0961  1512               	line	479
  7887                           ;procedures.c: 479:     TRISC1 = 0;
  7888                           	bsf	status, 5	;RP0=1, select bank1
  7889  0962  1683               	bcf	status, 6	;RP1=0, select bank1
  7890  0963  1303               	bcf	(1081/8)^080h,(1081)&7	;volatile
  7891  0964  1087               	line	480
  7892                           	
  7893                           l372:	
  7894  0965                     	return
  7895  0965  0008               	opt stack 0
  7896                           GLOBAL	__end_of_PWM2_Start
  7897                           	__end_of_PWM2_Start:
  7898  0966                     	signat	_PWM2_Start,89
  7899                           	global	_PWM2_Init
  7900                           
  7901 ;; *************** function _PWM2_Init *****************
  7902 ;; Defined at:
  7903 ;;		line 412 in file "procedures.c"
  7904 ;; Parameters:    Size  Location     Type
  7905 ;;  fre             4    6[BANK0 ] long 
  7906 ;; Auto vars:     Size  Location     Type
  7907 ;;		None
  7908 ;; Return value:  Size  Location     Type
  7909 ;;                  1    wreg      void 
  7910 ;; Registers used:
  7911 ;;		wreg, status,2, status,0, pclath, cstack
  7912 ;; Tracked objects:
  7913 ;;		On entry : 0/0
  7914 ;;		On exit  : 0/0
  7915 ;;		Unchanged: 0/0
  7916 ;; Data sizes:     COMMON   BANK0   BANK1   BANK3   BANK2
  7917 ;;      Params:         0       4       0       0       0
  7918 ;;      Locals:         0       0       0       0       0
  7919 ;;      Temps:          4       0       0       0       0
  7920 ;;      Totals:         4       4       0       0       0
  7921 ;;Total ram usage:        8 bytes
  7922 ;; Hardware stack levels used:    1
  7923 ;; Hardware stack levels required when called:    1
  7924 ;; This function calls:
  7925 ;;		___aldiv
  7926 ;; This function is called by:
  7927 ;;		_configuracionInicial
  7928 ;; This function uses a non-reentrant model
  7929 ;;
  7930                           psect	text23,local,class=CODE,delta=2,merge=1,group=0
  7931                           	line	412
  7932                           global __ptext23
  7933                           __ptext23:	;psect for function _PWM2_Init
  7934  0013                     psect	text23
  7935                           	file	"procedures.c"
  7936                           	line	412
  7937                           	global	__size_of_PWM2_Init
  7938                           	__size_of_PWM2_Init	equ	__end_of_PWM2_Init-_PWM2_Init
  7939  004F                     	
  7940                           _PWM2_Init:	
  7941  0013                     ;incstack = 0
  7942                           	opt	stack 5
  7943                           ; Regs used in _PWM2_Init: [wreg+status,2+status,0+pclath+cstack]
  7944                           	line	414
  7945                           	
  7946                           l2510:	
  7947  0013                     ;procedures.c: 412: void PWM2_Init(long fre);procedures.c: 413: {;procedures.c: 414:   P
                                 R2 = (20000000/(fre*4*4)) - 1;
  7948                           	bcf	status, 5	;RP0=0, select bank0
  7949  0013  1283               	bcf	status, 6	;RP1=0, select bank0
  7950  0014  1303               	movf	(PWM2_Init@fre),w
  7951  0015  0826               	movwf	(??_PWM2_Init+0)+0
  7952  0016  00F9               	movf	(PWM2_Init@fre+1),w
  7953  0017  0827               	movwf	((??_PWM2_Init+0)+0+1)
  7954  0018  00FA               	movf	(PWM2_Init@fre+2),w
  7955  0019  0828               	movwf	((??_PWM2_Init+0)+0+2)
  7956  001A  00FB               	movf	(PWM2_Init@fre+3),w
  7957  001B  0829               	movwf	((??_PWM2_Init+0)+0+3)
  7958  001C  00FC               	movlw	02h
  7959  001D  3002               u2745:
  7960  001E                     	clrc
  7961  001E  1003               	rlf	(??_PWM2_Init+0)+0,f
  7962  001F  0DF9               	rlf	(??_PWM2_Init+0)+1,f
  7963  0020  0DFA               	rlf	(??_PWM2_Init+0)+2,f
  7964  0021  0DFB               	rlf	(??_PWM2_Init+0)+3,f
  7965  0022  0DFC               u2740:
  7966  0023                     	addlw	-1
  7967  0023  3EFF               	skipz
  7968  0024  1D03               	goto	u2745
  7969  0025  281E               	movlw	02h
  7970  0026  3002               u2755:
  7971  0027                     	clrc
  7972  0027  1003               	rlf	(??_PWM2_Init+0)+0,f
  7973  0028  0DF9               	rlf	(??_PWM2_Init+0)+1,f
  7974  0029  0DFA               	rlf	(??_PWM2_Init+0)+2,f
  7975  002A  0DFB               	rlf	(??_PWM2_Init+0)+3,f
  7976  002B  0DFC               u2750:
  7977  002C                     	addlw	-1
  7978  002C  3EFF               	skipz
  7979  002D  1D03               	goto	u2755
  7980  002E  2827               	movf	3+(??_PWM2_Init+0)+0,w
  7981  002F  087C               	movwf	(___aldiv@divisor+3)
  7982  0030  00F3               	movf	2+(??_PWM2_Init+0)+0,w
  7983  0031  087B               	movwf	(___aldiv@divisor+2)
  7984  0032  00F2               	movf	1+(??_PWM2_Init+0)+0,w
  7985  0033  087A               	movwf	(___aldiv@divisor+1)
  7986  0034  00F1               	movf	0+(??_PWM2_Init+0)+0,w
  7987  0035  0879               	movwf	(___aldiv@divisor)
  7988  0036  00F0               
  7989                           	movlw	01h
  7990  0037  3001               	movwf	(___aldiv@dividend+3)
  7991  0038  00F7               	movlw	031h
  7992  0039  3031               	movwf	(___aldiv@dividend+2)
  7993  003A  00F6               	movlw	02Dh
  7994  003B  302D               	movwf	(___aldiv@dividend+1)
  7995  003C  00F5               	movlw	0
  7996  003D  3000               	movwf	(___aldiv@dividend)
  7997  003E  00F4               
  7998                           	fcall	___aldiv
  7999  003F  120A  158A  24FC  120A  118A  	movf	(0+(?___aldiv)),w
  8000  0044  0870               	addlw	0FFh
  8001  0045  3EFF               	bsf	status, 5	;RP0=1, select bank1
  8002  0046  1683               	bcf	status, 6	;RP1=0, select bank1
  8003  0047  1303               	movwf	(146)^080h	;volatile
  8004  0048  0092               	line	415
  8005                           	
  8006                           l2512:	
  8007  0049                     ;procedures.c: 415:   freq = fre;
  8008                           	bcf	status, 5	;RP0=0, select bank0
  8009  0049  1283               	bcf	status, 6	;RP1=0, select bank0
  8010  004A  1303               	movf	(PWM2_Init@fre+3),w
  8011  004B  0829               	bsf	status, 5	;RP0=1, select bank1
  8012  004C  1683               	bcf	status, 6	;RP1=0, select bank1
  8013  004D  1303               	movwf	(_freq+3)^080h
  8014  004E  00C6               	bcf	status, 5	;RP0=0, select bank0
  8015  004F  1283               	bcf	status, 6	;RP1=0, select bank0
  8016  0050  1303               	movf	(PWM2_Init@fre+2),w
  8017  0051  0828               	bsf	status, 5	;RP0=1, select bank1
  8018  0052  1683               	bcf	status, 6	;RP1=0, select bank1
  8019  0053  1303               	movwf	(_freq+2)^080h
  8020  0054  00C5               	bcf	status, 5	;RP0=0, select bank0
  8021  0055  1283               	bcf	status, 6	;RP1=0, select bank0
  8022  0056  1303               	movf	(PWM2_Init@fre+1),w
  8023  0057  0827               	bsf	status, 5	;RP0=1, select bank1
  8024  0058  1683               	bcf	status, 6	;RP1=0, select bank1
  8025  0059  1303               	movwf	(_freq+1)^080h
  8026  005A  00C4               	bcf	status, 5	;RP0=0, select bank0
  8027  005B  1283               	bcf	status, 6	;RP1=0, select bank0
  8028  005C  1303               	movf	(PWM2_Init@fre),w
  8029  005D  0826               	bsf	status, 5	;RP0=1, select bank1
  8030  005E  1683               	bcf	status, 6	;RP1=0, select bank1
  8031  005F  1303               	movwf	(_freq)^080h
  8032  0060  00C3               
  8033                           	line	416
  8034                           	
  8035                           l355:	
  8036  0061                     	return
  8037  0061  0008               	opt stack 0
  8038                           GLOBAL	__end_of_PWM2_Init
  8039                           	__end_of_PWM2_Init:
  8040  0062                     	signat	_PWM2_Init,4217
  8041                           	global	_PWM1_Start
  8042                           
  8043 ;; *************** function _PWM1_Start *****************
  8044 ;; Defined at:
  8045 ;;		line 440 in file "procedures.c"
  8046 ;; Parameters:    Size  Location     Type
  8047 ;;		None
  8048 ;; Auto vars:     Size  Location     Type
  8049 ;;		None
  8050 ;; Return value:  Size  Location     Type
  8051 ;;                  1    wreg      void 
  8052 ;; Registers used:
  8053 ;;		None
  8054 ;; Tracked objects:
  8055 ;;		On entry : 0/0
  8056 ;;		On exit  : 0/0
  8057 ;;		Unchanged: 0/0
  8058 ;; Data sizes:     COMMON   BANK0   BANK1   BANK3   BANK2
  8059 ;;      Params:         0       0       0       0       0
  8060 ;;      Locals:         0       0       0       0       0
  8061 ;;      Temps:          0       0       0       0       0
  8062 ;;      Totals:         0       0       0       0       0
  8063 ;;Total ram usage:        0 bytes
  8064 ;; Hardware stack levels used:    1
  8065 ;; This function calls:
  8066 ;;		Nothing
  8067 ;; This function is called by:
  8068 ;;		_configuracionInicial
  8069 ;; This function uses a non-reentrant model
  8070 ;;
  8071                           psect	text24,local,class=CODE,delta=2,merge=1,group=0
  8072                           	line	440
  8073                           global __ptext24
  8074                           __ptext24:	;psect for function _PWM1_Start
  8075  0950                     psect	text24
  8076                           	file	"procedures.c"
  8077                           	line	440
  8078                           	global	__size_of_PWM1_Start
  8079                           	__size_of_PWM1_Start	equ	__end_of_PWM1_Start-_PWM1_Start
  8080  000B                     	
  8081                           _PWM1_Start:	
  8082  0950                     ;incstack = 0
  8083                           	opt	stack 6
  8084                           ; Regs used in _PWM1_Start: []
  8085                           	line	442
  8086                           	
  8087                           l1596:	
  8088  0950                     ;procedures.c: 442:   CCP1M3 = 1;
  8089                           	bcf	status, 5	;RP0=0, select bank0
  8090  0950  1283               	bcf	status, 6	;RP1=0, select bank0
  8091  0951  1303               	bsf	(187/8),(187)&7	;volatile
  8092  0952  1597               	line	443
  8093                           ;procedures.c: 443:   CCP1M2 = 1;
  8094                           	bsf	(186/8),(186)&7	;volatile
  8095  0953  1517               	line	448
  8096                           ;procedures.c: 448:     T2CKPS0 = 1;
  8097                           	bsf	(144/8),(144)&7	;volatile
  8098  0954  1412               	line	449
  8099                           ;procedures.c: 449:     T2CKPS1 = 0;
  8100                           	bcf	(145/8),(145)&7	;volatile
  8101  0955  1092               	line	454
  8102                           ;procedures.c: 454:   TMR2ON = 1;
  8103                           	bsf	(146/8),(146)&7	;volatile
  8104  0956  1512               	line	455
  8105                           ;procedures.c: 455:   TRISC2 = 0;
  8106                           	bsf	status, 5	;RP0=1, select bank1
  8107  0957  1683               	bcf	status, 6	;RP1=0, select bank1
  8108  0958  1303               	bcf	(1082/8)^080h,(1082)&7	;volatile
  8109  0959  1107               	line	456
  8110                           	
  8111                           l366:	
  8112  095A                     	return
  8113  095A  0008               	opt stack 0
  8114                           GLOBAL	__end_of_PWM1_Start
  8115                           	__end_of_PWM1_Start:
  8116  095B                     	signat	_PWM1_Start,89
  8117                           	global	_PWM1_Init
  8118                           
  8119 ;; *************** function _PWM1_Init *****************
  8120 ;; Defined at:
  8121 ;;		line 406 in file "procedures.c"
  8122 ;; Parameters:    Size  Location     Type
  8123 ;;  fre             4    6[BANK0 ] long 
  8124 ;; Auto vars:     Size  Location     Type
  8125 ;;		None
  8126 ;; Return value:  Size  Location     Type
  8127 ;;                  1    wreg      void 
  8128 ;; Registers used:
  8129 ;;		wreg, status,2, status,0, pclath, cstack
  8130 ;; Tracked objects:
  8131 ;;		On entry : 0/0
  8132 ;;		On exit  : 0/0
  8133 ;;		Unchanged: 0/0
  8134 ;; Data sizes:     COMMON   BANK0   BANK1   BANK3   BANK2
  8135 ;;      Params:         0       4       0       0       0
  8136 ;;      Locals:         0       0       0       0       0
  8137 ;;      Temps:          4       0       0       0       0
  8138 ;;      Totals:         4       4       0       0       0
  8139 ;;Total ram usage:        8 bytes
  8140 ;; Hardware stack levels used:    1
  8141 ;; Hardware stack levels required when called:    1
  8142 ;; This function calls:
  8143 ;;		___aldiv
  8144 ;; This function is called by:
  8145 ;;		_configuracionInicial
  8146 ;; This function uses a non-reentrant model
  8147 ;;
  8148                           psect	text25,local,class=CODE,delta=2,merge=1,group=0
  8149                           	line	406
  8150                           global __ptext25
  8151                           __ptext25:	;psect for function _PWM1_Init
  8152  0AF1                     psect	text25
  8153                           	file	"procedures.c"
  8154                           	line	406
  8155                           	global	__size_of_PWM1_Init
  8156                           	__size_of_PWM1_Init	equ	__end_of_PWM1_Init-_PWM1_Init
  8157  004F                     	
  8158                           _PWM1_Init:	
  8159  0AF1                     ;incstack = 0
  8160                           	opt	stack 5
  8161                           ; Regs used in _PWM1_Init: [wreg+status,2+status,0+pclath+cstack]
  8162                           	line	408
  8163                           	
  8164                           l2506:	
  8165  0AF1                     ;procedures.c: 406: void PWM1_Init(long fre);procedures.c: 407: {;procedures.c: 408:   P
                                 R2 = (20000000/(fre*4*4)) - 1;
  8166                           	bcf	status, 5	;RP0=0, select bank0
  8167  0AF1  1283               	bcf	status, 6	;RP1=0, select bank0
  8168  0AF2  1303               	movf	(PWM1_Init@fre),w
  8169  0AF3  0826               	movwf	(??_PWM1_Init+0)+0
  8170  0AF4  00F9               	movf	(PWM1_Init@fre+1),w
  8171  0AF5  0827               	movwf	((??_PWM1_Init+0)+0+1)
  8172  0AF6  00FA               	movf	(PWM1_Init@fre+2),w
  8173  0AF7  0828               	movwf	((??_PWM1_Init+0)+0+2)
  8174  0AF8  00FB               	movf	(PWM1_Init@fre+3),w
  8175  0AF9  0829               	movwf	((??_PWM1_Init+0)+0+3)
  8176  0AFA  00FC               	movlw	02h
  8177  0AFB  3002               u2725:
  8178  0AFC                     	clrc
  8179  0AFC  1003               	rlf	(??_PWM1_Init+0)+0,f
  8180  0AFD  0DF9               	rlf	(??_PWM1_Init+0)+1,f
  8181  0AFE  0DFA               	rlf	(??_PWM1_Init+0)+2,f
  8182  0AFF  0DFB               	rlf	(??_PWM1_Init+0)+3,f
  8183  0B00  0DFC               u2720:
  8184  0B01                     	addlw	-1
  8185  0B01  3EFF               	skipz
  8186  0B02  1D03               	goto	u2725
  8187  0B03  2AFC               	movlw	02h
  8188  0B04  3002               u2735:
  8189  0B05                     	clrc
  8190  0B05  1003               	rlf	(??_PWM1_Init+0)+0,f
  8191  0B06  0DF9               	rlf	(??_PWM1_Init+0)+1,f
  8192  0B07  0DFA               	rlf	(??_PWM1_Init+0)+2,f
  8193  0B08  0DFB               	rlf	(??_PWM1_Init+0)+3,f
  8194  0B09  0DFC               u2730:
  8195  0B0A                     	addlw	-1
  8196  0B0A  3EFF               	skipz
  8197  0B0B  1D03               	goto	u2735
  8198  0B0C  2B05               	movf	3+(??_PWM1_Init+0)+0,w
  8199  0B0D  087C               	movwf	(___aldiv@divisor+3)
  8200  0B0E  00F3               	movf	2+(??_PWM1_Init+0)+0,w
  8201  0B0F  087B               	movwf	(___aldiv@divisor+2)
  8202  0B10  00F2               	movf	1+(??_PWM1_Init+0)+0,w
  8203  0B11  087A               	movwf	(___aldiv@divisor+1)
  8204  0B12  00F1               	movf	0+(??_PWM1_Init+0)+0,w
  8205  0B13  0879               	movwf	(___aldiv@divisor)
  8206  0B14  00F0               
  8207                           	movlw	01h
  8208  0B15  3001               	movwf	(___aldiv@dividend+3)
  8209  0B16  00F7               	movlw	031h
  8210  0B17  3031               	movwf	(___aldiv@dividend+2)
  8211  0B18  00F6               	movlw	02Dh
  8212  0B19  302D               	movwf	(___aldiv@dividend+1)
  8213  0B1A  00F5               	movlw	0
  8214  0B1B  3000               	movwf	(___aldiv@dividend)
  8215  0B1C  00F4               
  8216                           	fcall	___aldiv
  8217  0B1D  120A  158A  24FC  120A  158A  	movf	(0+(?___aldiv)),w
  8218  0B22  0870               	addlw	0FFh
  8219  0B23  3EFF               	bsf	status, 5	;RP0=1, select bank1
  8220  0B24  1683               	bcf	status, 6	;RP1=0, select bank1
  8221  0B25  1303               	movwf	(146)^080h	;volatile
  8222  0B26  0092               	line	409
  8223                           	
  8224                           l2508:	
  8225  0B27                     ;procedures.c: 409:   freq = fre;
  8226                           	bcf	status, 5	;RP0=0, select bank0
  8227  0B27  1283               	bcf	status, 6	;RP1=0, select bank0
  8228  0B28  1303               	movf	(PWM1_Init@fre+3),w
  8229  0B29  0829               	bsf	status, 5	;RP0=1, select bank1
  8230  0B2A  1683               	bcf	status, 6	;RP1=0, select bank1
  8231  0B2B  1303               	movwf	(_freq+3)^080h
  8232  0B2C  00C6               	bcf	status, 5	;RP0=0, select bank0
  8233  0B2D  1283               	bcf	status, 6	;RP1=0, select bank0
  8234  0B2E  1303               	movf	(PWM1_Init@fre+2),w
  8235  0B2F  0828               	bsf	status, 5	;RP0=1, select bank1
  8236  0B30  1683               	bcf	status, 6	;RP1=0, select bank1
  8237  0B31  1303               	movwf	(_freq+2)^080h
  8238  0B32  00C5               	bcf	status, 5	;RP0=0, select bank0
  8239  0B33  1283               	bcf	status, 6	;RP1=0, select bank0
  8240  0B34  1303               	movf	(PWM1_Init@fre+1),w
  8241  0B35  0827               	bsf	status, 5	;RP0=1, select bank1
  8242  0B36  1683               	bcf	status, 6	;RP1=0, select bank1
  8243  0B37  1303               	movwf	(_freq+1)^080h
  8244  0B38  00C4               	bcf	status, 5	;RP0=0, select bank0
  8245  0B39  1283               	bcf	status, 6	;RP1=0, select bank0
  8246  0B3A  1303               	movf	(PWM1_Init@fre),w
  8247  0B3B  0826               	bsf	status, 5	;RP0=1, select bank1
  8248  0B3C  1683               	bcf	status, 6	;RP1=0, select bank1
  8249  0B3D  1303               	movwf	(_freq)^080h
  8250  0B3E  00C3               
  8251                           	line	410
  8252                           	
  8253                           l352:	
  8254  0B3F                     	return
  8255  0B3F  0008               	opt stack 0
  8256                           GLOBAL	__end_of_PWM1_Init
  8257                           	__end_of_PWM1_Init:
  8258  0B40                     	signat	_PWM1_Init,4217
  8259                           	global	___aldiv
  8260                           
  8261 ;; *************** function ___aldiv *****************
  8262 ;; Defined at:
  8263 ;;		line 5 in file "C:\Program Files (x86)\Microchip\xc8\v2.00\pic\sources\c90\common\aldiv.c"
  8264 ;; Parameters:    Size  Location     Type
  8265 ;;  divisor         4    0[COMMON] long 
  8266 ;;  dividend        4    4[COMMON] long 
  8267 ;; Auto vars:     Size  Location     Type
  8268 ;;  quotient        4    2[BANK0 ] long 
  8269 ;;  sign            1    1[BANK0 ] unsigned char 
  8270 ;;  counter         1    0[BANK0 ] unsigned char 
  8271 ;; Return value:  Size  Location     Type
  8272 ;;                  4    0[COMMON] long 
  8273 ;; Registers used:
  8274 ;;		wreg, status,2, status,0
  8275 ;; Tracked objects:
  8276 ;;		On entry : 0/0
  8277 ;;		On exit  : 0/0
  8278 ;;		Unchanged: 0/0
  8279 ;; Data sizes:     COMMON   BANK0   BANK1   BANK3   BANK2
  8280 ;;      Params:         8       0       0       0       0
  8281 ;;      Locals:         0       6       0       0       0
  8282 ;;      Temps:          1       0       0       0       0
  8283 ;;      Totals:         9       6       0       0       0
  8284 ;;Total ram usage:       15 bytes
  8285 ;; Hardware stack levels used:    1
  8286 ;; This function calls:
  8287 ;;		Nothing
  8288 ;; This function is called by:
  8289 ;;		_SerialBegin
  8290 ;;		_PWM_Max_Duty
  8291 ;;		_PWM1_Init
  8292 ;;		_PWM2_Init
  8293 ;; This function uses a non-reentrant model
  8294 ;;
  8295                           psect	text26,local,class=CODE,delta=2,merge=1,group=1
  8296                           	file	"C:\Program Files (x86)\Microchip\xc8\v2.00\pic\sources\c90\common\aldiv.c"
  8297                           	line	5
  8298                           global __ptext26
  8299                           __ptext26:	;psect for function ___aldiv
  8300  0CFC                     psect	text26
  8301                           	file	"C:\Program Files (x86)\Microchip\xc8\v2.00\pic\sources\c90\common\aldiv.c"
  8302                           	line	5
  8303                           	global	__size_of___aldiv
  8304                           	__size_of___aldiv	equ	__end_of___aldiv-___aldiv
  8305  00A6                     	
  8306                           ___aldiv:	
  8307  0CFC                     ;incstack = 0
  8308                           	opt	stack 5
  8309                           ; Regs used in ___aldiv: [wreg+status,2+status,0]
  8310                           	line	13
  8311                           	
  8312                           l1868:	
  8313  0CFC                     	bcf	status, 5	;RP0=0, select bank0
  8314  0CFC  1283               	bcf	status, 6	;RP1=0, select bank0
  8315  0CFD  1303               	clrf	(___aldiv@sign)
  8316  0CFE  01A1               	line	14
  8317                           	
  8318                           l1870:	
  8319  0CFF                     	btfss	(___aldiv@divisor+3),7
  8320  0CFF  1FF3               	goto	u1411
  8321  0D00  2D02               	goto	u1410
  8322  0D01  2D03               u1411:
  8323  0D02                     	goto	l526
  8324  0D02  2D10               u1410:
  8325  0D03                     	line	15
  8326                           	
  8327                           l1872:	
  8328  0D03                     	comf	(___aldiv@divisor),f
  8329  0D03  09F0               	comf	(___aldiv@divisor+1),f
  8330  0D04  09F1               	comf	(___aldiv@divisor+2),f
  8331  0D05  09F2               	comf	(___aldiv@divisor+3),f
  8332  0D06  09F3               	incf	(___aldiv@divisor),f
  8333  0D07  0AF0               	skipnz
  8334  0D08  1903               	incf	(___aldiv@divisor+1),f
  8335  0D09  0AF1               	skipnz
  8336  0D0A  1903               	incf	(___aldiv@divisor+2),f
  8337  0D0B  0AF2               	skipnz
  8338  0D0C  1903               	incf	(___aldiv@divisor+3),f
  8339  0D0D  0AF3               	line	16
  8340                           	clrf	(___aldiv@sign)
  8341  0D0E  01A1               	incf	(___aldiv@sign),f
  8342  0D0F  0AA1               	line	17
  8343                           	
  8344                           l526:	
  8345  0D10                     	line	18
  8346                           	btfss	(___aldiv@dividend+3),7
  8347  0D10  1FF7               	goto	u1421
  8348  0D11  2D13               	goto	u1420
  8349  0D12  2D14               u1421:
  8350  0D13                     	goto	l1878
  8351  0D13  2D24               u1420:
  8352  0D14                     	line	19
  8353                           	
  8354                           l1874:	
  8355  0D14                     	comf	(___aldiv@dividend),f
  8356  0D14  09F4               	comf	(___aldiv@dividend+1),f
  8357  0D15  09F5               	comf	(___aldiv@dividend+2),f
  8358  0D16  09F6               	comf	(___aldiv@dividend+3),f
  8359  0D17  09F7               	incf	(___aldiv@dividend),f
  8360  0D18  0AF4               	skipnz
  8361  0D19  1903               	incf	(___aldiv@dividend+1),f
  8362  0D1A  0AF5               	skipnz
  8363  0D1B  1903               	incf	(___aldiv@dividend+2),f
  8364  0D1C  0AF6               	skipnz
  8365  0D1D  1903               	incf	(___aldiv@dividend+3),f
  8366  0D1E  0AF7               	line	20
  8367                           	
  8368                           l1876:	
  8369  0D1F                     	movlw	low(01h)
  8370  0D1F  3001               	movwf	(??___aldiv+0)+0
  8371  0D20  00F8               	movf	(??___aldiv+0)+0,w
  8372  0D21  0878               	xorwf	(___aldiv@sign),f
  8373  0D22  06A1               	goto	l1878
  8374  0D23  2D24               	line	21
  8375                           	
  8376                           l527:	
  8377  0D24                     	line	22
  8378                           	
  8379                           l1878:	
  8380  0D24                     	movlw	high highword(0)
  8381  0D24  3000               	movwf	(___aldiv@quotient+3)
  8382  0D25  00A5               	movlw	low highword(0)
  8383  0D26  3000               	movwf	(___aldiv@quotient+2)
  8384  0D27  00A4               	movlw	high(0)
  8385  0D28  3000               	movwf	(___aldiv@quotient+1)
  8386  0D29  00A3               	movlw	low(0)
  8387  0D2A  3000               	movwf	(___aldiv@quotient)
  8388  0D2B  00A2               
  8389                           	line	23
  8390                           	
  8391                           l1880:	
  8392  0D2C                     	movf	(___aldiv@divisor+3),w
  8393  0D2C  0873               	iorwf	(___aldiv@divisor+2),w
  8394  0D2D  0472               	iorwf	(___aldiv@divisor+1),w
  8395  0D2E  0471               	iorwf	(___aldiv@divisor),w
  8396  0D2F  0470               	skipnz
  8397  0D30  1903               	goto	u1431
  8398  0D31  2D33               	goto	u1430
  8399  0D32  2D34               u1431:
  8400  0D33                     	goto	l1900
  8401  0D33  2D87               u1430:
  8402  0D34                     	line	24
  8403                           	
  8404                           l1882:	
  8405  0D34                     	clrf	(___aldiv@counter)
  8406  0D34  01A0               	incf	(___aldiv@counter),f
  8407  0D35  0AA0               	line	25
  8408                           	goto	l1886
  8409  0D36  2D45               	
  8410                           l530:	
  8411  0D37                     	line	26
  8412                           	
  8413                           l1884:	
  8414  0D37                     	movlw	01h
  8415  0D37  3001               	movwf	(??___aldiv+0)+0
  8416  0D38  00F8               u1445:
  8417  0D39                     	clrc
  8418  0D39  1003               	rlf	(___aldiv@divisor),f
  8419  0D3A  0DF0               	rlf	(___aldiv@divisor+1),f
  8420  0D3B  0DF1               	rlf	(___aldiv@divisor+2),f
  8421  0D3C  0DF2               	rlf	(___aldiv@divisor+3),f
  8422  0D3D  0DF3               	decfsz	(??___aldiv+0)+0
  8423  0D3E  0BF8               	goto	u1445
  8424  0D3F  2D39               	line	27
  8425                           	movlw	low(01h)
  8426  0D40  3001               	movwf	(??___aldiv+0)+0
  8427  0D41  00F8               	movf	(??___aldiv+0)+0,w
  8428  0D42  0878               	addwf	(___aldiv@counter),f
  8429  0D43  07A0               	goto	l1886
  8430  0D44  2D45               	line	28
  8431                           	
  8432                           l529:	
  8433  0D45                     	line	25
  8434                           	
  8435                           l1886:	
  8436  0D45                     	btfss	(___aldiv@divisor+3),(31)&7
  8437  0D45  1FF3               	goto	u1451
  8438  0D46  2D48               	goto	u1450
  8439  0D47  2D49               u1451:
  8440  0D48                     	goto	l1884
  8441  0D48  2D37               u1450:
  8442  0D49                     	goto	l1888
  8443  0D49  2D4B               	
  8444                           l531:	
  8445  0D4A                     	goto	l1888
  8446  0D4A  2D4B               	line	29
  8447                           	
  8448                           l532:	
  8449  0D4B                     	line	30
  8450                           	
  8451                           l1888:	
  8452  0D4B                     	movlw	01h
  8453  0D4B  3001               	movwf	(??___aldiv+0)+0
  8454  0D4C  00F8               u1465:
  8455  0D4D                     	clrc
  8456  0D4D  1003               	rlf	(___aldiv@quotient),f
  8457  0D4E  0DA2               	rlf	(___aldiv@quotient+1),f
  8458  0D4F  0DA3               	rlf	(___aldiv@quotient+2),f
  8459  0D50  0DA4               	rlf	(___aldiv@quotient+3),f
  8460  0D51  0DA5               	decfsz	(??___aldiv+0)+0
  8461  0D52  0BF8               	goto	u1465
  8462  0D53  2D4D               	line	31
  8463                           	
  8464                           l1890:	
  8465  0D54                     	movf	(___aldiv@divisor+3),w
  8466  0D54  0873               	subwf	(___aldiv@dividend+3),w
  8467  0D55  0277               	skipz
  8468  0D56  1D03               	goto	u1475
  8469  0D57  2D62               	movf	(___aldiv@divisor+2),w
  8470  0D58  0872               	subwf	(___aldiv@dividend+2),w
  8471  0D59  0276               	skipz
  8472  0D5A  1D03               	goto	u1475
  8473  0D5B  2D62               	movf	(___aldiv@divisor+1),w
  8474  0D5C  0871               	subwf	(___aldiv@dividend+1),w
  8475  0D5D  0275               	skipz
  8476  0D5E  1D03               	goto	u1475
  8477  0D5F  2D62               	movf	(___aldiv@divisor),w
  8478  0D60  0870               	subwf	(___aldiv@dividend),w
  8479  0D61  0274               u1475:
  8480  0D62                     	skipc
  8481  0D62  1C03               	goto	u1471
  8482  0D63  2D65               	goto	u1470
  8483  0D64  2D66               u1471:
  8484  0D65                     	goto	l1896
  8485  0D65  2D76               u1470:
  8486  0D66                     	line	32
  8487                           	
  8488                           l1892:	
  8489  0D66                     	movf	(___aldiv@divisor),w
  8490  0D66  0870               	subwf	(___aldiv@dividend),f
  8491  0D67  02F4               	movf	(___aldiv@divisor+1),w
  8492  0D68  0871               	skipc
  8493  0D69  1C03               	incfsz	(___aldiv@divisor+1),w
  8494  0D6A  0F71               	subwf	(___aldiv@dividend+1),f
  8495  0D6B  02F5               	movf	(___aldiv@divisor+2),w
  8496  0D6C  0872               	skipc
  8497  0D6D  1C03               	incfsz	(___aldiv@divisor+2),w
  8498  0D6E  0F72               	subwf	(___aldiv@dividend+2),f
  8499  0D6F  02F6               	movf	(___aldiv@divisor+3),w
  8500  0D70  0873               	skipc
  8501  0D71  1C03               	incfsz	(___aldiv@divisor+3),w
  8502  0D72  0F73               	subwf	(___aldiv@dividend+3),f
  8503  0D73  02F7               	line	33
  8504                           	
  8505                           l1894:	
  8506  0D74                     	bsf	(___aldiv@quotient)+(0/8),(0)&7
  8507  0D74  1422               	goto	l1896
  8508  0D75  2D76               	line	34
  8509                           	
  8510                           l533:	
  8511  0D76                     	line	35
  8512                           	
  8513                           l1896:	
  8514  0D76                     	movlw	01h
  8515  0D76  3001               u1485:
  8516  0D77                     	clrc
  8517  0D77  1003               	rrf	(___aldiv@divisor+3),f
  8518  0D78  0CF3               	rrf	(___aldiv@divisor+2),f
  8519  0D79  0CF2               	rrf	(___aldiv@divisor+1),f
  8520  0D7A  0CF1               	rrf	(___aldiv@divisor),f
  8521  0D7B  0CF0               	addlw	-1
  8522  0D7C  3EFF               	skipz
  8523  0D7D  1D03               	goto	u1485
  8524  0D7E  2D77               
  8525                           	line	36
  8526                           	
  8527                           l1898:	
  8528  0D7F                     	movlw	01h
  8529  0D7F  3001               	subwf	(___aldiv@counter),f
  8530  0D80  02A0               	btfss	status,2
  8531  0D81  1D03               	goto	u1491
  8532  0D82  2D84               	goto	u1490
  8533  0D83  2D85               u1491:
  8534  0D84                     	goto	l1888
  8535  0D84  2D4B               u1490:
  8536  0D85                     	goto	l1900
  8537  0D85  2D87               	
  8538                           l534:	
  8539  0D86                     	goto	l1900
  8540  0D86  2D87               	line	37
  8541                           	
  8542                           l528:	
  8543  0D87                     	line	38
  8544                           	
  8545                           l1900:	
  8546  0D87                     	movf	((___aldiv@sign)),w
  8547  0D87  0821               	btfsc	status,2
  8548  0D88  1903               	goto	u1501
  8549  0D89  2D8B               	goto	u1500
  8550  0D8A  2D8C               u1501:
  8551  0D8B                     	goto	l1904
  8552  0D8B  2D98               u1500:
  8553  0D8C                     	line	39
  8554                           	
  8555                           l1902:	
  8556  0D8C                     	comf	(___aldiv@quotient),f
  8557  0D8C  09A2               	comf	(___aldiv@quotient+1),f
  8558  0D8D  09A3               	comf	(___aldiv@quotient+2),f
  8559  0D8E  09A4               	comf	(___aldiv@quotient+3),f
  8560  0D8F  09A5               	incf	(___aldiv@quotient),f
  8561  0D90  0AA2               	skipnz
  8562  0D91  1903               	incf	(___aldiv@quotient+1),f
  8563  0D92  0AA3               	skipnz
  8564  0D93  1903               	incf	(___aldiv@quotient+2),f
  8565  0D94  0AA4               	skipnz
  8566  0D95  1903               	incf	(___aldiv@quotient+3),f
  8567  0D96  0AA5               	goto	l1904
  8568  0D97  2D98               	
  8569                           l535:	
  8570  0D98                     	line	40
  8571                           	
  8572                           l1904:	
  8573  0D98                     	movf	(___aldiv@quotient+3),w
  8574  0D98  0825               	movwf	(?___aldiv+3)
  8575  0D99  00F3               	movf	(___aldiv@quotient+2),w
  8576  0D9A  0824               	movwf	(?___aldiv+2)
  8577  0D9B  00F2               	movf	(___aldiv@quotient+1),w
  8578  0D9C  0823               	movwf	(?___aldiv+1)
  8579  0D9D  00F1               	movf	(___aldiv@quotient),w
  8580  0D9E  0822               	movwf	(?___aldiv)
  8581  0D9F  00F0               
  8582                           	goto	l536
  8583  0DA0  2DA1               	
  8584                           l1906:	
  8585  0DA1                     	line	41
  8586                           	
  8587                           l536:	
  8588  0DA1                     	return
  8589  0DA1  0008               	opt stack 0
  8590                           GLOBAL	__end_of___aldiv
  8591                           	__end_of___aldiv:
  8592  0DA2                     	signat	___aldiv,8316
  8593                           global	___latbits
  8594                           ___latbits	equ	2
  8595  0002                     	global	btemp
  8596                           	btemp set 07Eh
  8597  007E                     
  8598                           	DABS	1,126,2	;btemp
  8599                           	global	wtemp0
  8600                           	wtemp0 set btemp+0
  8601  007E                     	end


Data Sizes:
    Strings     0
    Constant    0
    Data        2
    BSS         16
    Persistent  4
    Stack       0

Auto Spaces:
    Space          Size  Autos    Used
    COMMON           14     14      14
    BANK0            80     80      80
    BANK1            80     19      41
    BANK3            96      0       0
    BANK2            96      0       0

Pointer List with Targets:

    None.

Critical Paths under _main in COMMON

    _setup->_SerialBegin
    _SerialBegin->___aldiv
    _loop->_analogWrite
    _PWM2_Duty->_PWM_Max_Duty
    _PWM1_Duty->_PWM_Max_Duty
    ___xxtofl->_PWM_Max_Duty
    ___fltol->_PWM_Max_Duty
    ___flmul->_PWM_Max_Duty
    _PWM_Max_Duty->___aldiv
    _configuracionInicial->_PWM1_Init
    _configuracionInicial->_PWM2_Init
    _PWM2_Init->___aldiv
    _PWM1_Init->___aldiv

Critical Paths under _main in BANK0

    _setup->_SerialBegin
    _SerialBegin->___aldiv
    _PWM2_Duty->___fltol
    _PWM1_Duty->___fltol
    ___xxtofl->_PWM_Max_Duty
    ___fltol->___flmul
    ___flmul->___fldiv
    ___fldiv->___xxtofl
    _PWM_Max_Duty->___aldiv
    _configuracionInicial->_PWM1_Init
    _configuracionInicial->_PWM2_Init
    _PWM2_Init->___aldiv
    _PWM1_Init->___aldiv

Critical Paths under _main in BANK1

    _main->_loop
    _loop->_analogWrite
    _analogWrite->_PWM1_Duty
    _analogWrite->_PWM2_Duty
    _PWM2_Duty->___fltol
    _PWM1_Duty->___fltol

Critical Paths under _main in BANK3

    None.

Critical Paths under _main in BANK2

    None.

Call Graph Tables:

 ---------------------------------------------------------------------------------
 (Depth) Function   	        Calls       Base Space   Used Autos Params    Refs
 ---------------------------------------------------------------------------------
 (0) _main                                                 0     0      0   17826
               _configuracionInicial
                               _loop
                              _setup
 ---------------------------------------------------------------------------------
 (1) _setup                                                0     0      0    1918
                        _SerialBegin
                            _pinMode
 ---------------------------------------------------------------------------------
 (2) _pinMode                                              4     3      1     626
                                              0 COMMON     4     3      1
 ---------------------------------------------------------------------------------
 (2) _SerialBegin                                         18    14      4    1292
                                              9 COMMON     2     2      0
                                              6 BANK0     16    12      4
                            ___aldiv
 ---------------------------------------------------------------------------------
 (1) _loop                                                 6     6      0   13548
                                             13 BANK1      6     6      0
                    _SerialAvailable
                         _SerialRead
                        _SerialWrite
                         _analogRead
                        _analogWrite
                     _cocienteEntero
                              _delay
                            _residuo
 ---------------------------------------------------------------------------------
 (2) _residuo                                              6     2      4     264
                                              0 COMMON     6     2      4
 ---------------------------------------------------------------------------------
 (2) _delay                                                7     5      2     212
                                              0 COMMON     7     5      2
 ---------------------------------------------------------------------------------
 (2) _cocienteEntero                                       8     4      4     266
                                              0 COMMON     8     4      4
 ---------------------------------------------------------------------------------
 (2) _analogWrite                                          5     3      2   12670
                                             13 COMMON     1     1      0
                                              9 BANK1      4     2      2
                          _PWM1_Duty
                          _PWM2_Duty
 ---------------------------------------------------------------------------------
 (3) _PWM2_Duty                                            4     2      2    6226
                                              5 BANK1      4     2      2
                       _PWM_Max_Duty
                            ___fldiv
                            ___flmul
                            ___fltol
                           ___xxtofl
 ---------------------------------------------------------------------------------
 (3) _PWM1_Duty                                            4     2      2    6226
                                              5 BANK1      4     2      2
                       _PWM_Max_Duty
                            ___fldiv
                            ___flmul
                            ___fltol
                           ___xxtofl
 ---------------------------------------------------------------------------------
 (4) ___xxtofl                                            14    10      4     626
                                              8 BANK0     14    10      4
                       _PWM_Max_Duty (ARG)
 ---------------------------------------------------------------------------------
 (4) ___fltol                                             11     7      4     381
                                             74 BANK0      6     2      4
                                              0 BANK1      5     5      0
                       _PWM_Max_Duty (ARG)
                            ___fldiv (ARG)
                            ___flmul (ARG)
                           ___xxtofl (ARG)
 ---------------------------------------------------------------------------------
 (4) ___flmul                                             26    18      8    2569
                                             48 BANK0     26    18      8
                       _PWM_Max_Duty (ARG)
                          __Umul8_16
                            ___fldiv (ARG)
                           ___xxtofl (ARG)
 ---------------------------------------------------------------------------------
 (5) __Umul8_16                                            9     7      2     799
                                              0 COMMON     9     7      2
 ---------------------------------------------------------------------------------
 (4) ___fldiv                                             26    18      8    1425
                                             22 BANK0     26    18      8
                           ___xxtofl (ARG)
 ---------------------------------------------------------------------------------
 (4) _PWM_Max_Duty                                         6     4      2    1060
                                              9 COMMON     4     4      0
                                              6 BANK0      2     0      2
                            ___aldiv
 ---------------------------------------------------------------------------------
 (2) _analogRead                                           5     3      2      22
                                              0 COMMON     5     3      2
 ---------------------------------------------------------------------------------
 (2) _SerialWrite                                          1     1      0      22
                                              0 COMMON     1     1      0
 ---------------------------------------------------------------------------------
 (2) _SerialRead                                           0     0      0       0
 ---------------------------------------------------------------------------------
 (2) _SerialAvailable                                      0     0      0       0
 ---------------------------------------------------------------------------------
 (1) _configuracionInicial                                 0     0      0    2360
                          _PWM1_Init
                         _PWM1_Start
                          _PWM2_Init
                         _PWM2_Start
 ---------------------------------------------------------------------------------
 (2) _PWM2_Start                                           0     0      0       0
 ---------------------------------------------------------------------------------
 (2) _PWM2_Init                                            8     4      4    1180
                                              9 COMMON     4     4      0
                                              6 BANK0      4     0      4
                            ___aldiv
 ---------------------------------------------------------------------------------
 (2) _PWM1_Start                                           0     0      0       0
 ---------------------------------------------------------------------------------
 (2) _PWM1_Init                                            8     4      4    1180
                                              9 COMMON     4     4      0
                                              6 BANK0      4     0      4
                            ___aldiv
 ---------------------------------------------------------------------------------
 (3) ___aldiv                                             15     7      8    1060
                                              0 COMMON     9     1      8
                                              0 BANK0      6     6      0
 ---------------------------------------------------------------------------------
 Estimated maximum stack depth 5
 ---------------------------------------------------------------------------------

 Call Graph Graphs:

 _main (ROOT)
   _configuracionInicial
     _PWM1_Init
       ___aldiv
     _PWM1_Start
     _PWM2_Init
       ___aldiv
     _PWM2_Start
   _loop
     _SerialAvailable
     _SerialRead
     _SerialWrite
     _analogRead
     _analogWrite
       _PWM1_Duty
         _PWM_Max_Duty
           ___aldiv
         ___fldiv
           ___xxtofl (ARG)
             _PWM_Max_Duty (ARG)
               ___aldiv
         ___flmul
           _PWM_Max_Duty (ARG)
             ___aldiv
           __Umul8_16 (ARG)
           ___fldiv (ARG)
             ___xxtofl (ARG)
               _PWM_Max_Duty (ARG)
                 ___aldiv
           ___xxtofl (ARG)
             _PWM_Max_Duty (ARG)
               ___aldiv
         ___fltol
           _PWM_Max_Duty (ARG)
             ___aldiv
           ___fldiv (ARG)
             ___xxtofl (ARG)
               _PWM_Max_Duty (ARG)
                 ___aldiv
           ___flmul (ARG)
             _PWM_Max_Duty (ARG)
               ___aldiv
             __Umul8_16 (ARG)
             ___fldiv (ARG)
               ___xxtofl (ARG)
                 _PWM_Max_Duty (ARG)
                   ___aldiv
             ___xxtofl (ARG)
               _PWM_Max_Duty (ARG)
                 ___aldiv
           ___xxtofl (ARG)
             _PWM_Max_Duty (ARG)
               ___aldiv
         ___xxtofl
           _PWM_Max_Duty (ARG)
             ___aldiv
       _PWM2_Duty
         _PWM_Max_Duty
           ___aldiv
         ___fldiv
           ___xxtofl (ARG)
             _PWM_Max_Duty (ARG)
               ___aldiv
         ___flmul
           _PWM_Max_Duty (ARG)
             ___aldiv
           __Umul8_16 (ARG)
           ___fldiv (ARG)
             ___xxtofl (ARG)
               _PWM_Max_Duty (ARG)
                 ___aldiv
           ___xxtofl (ARG)
             _PWM_Max_Duty (ARG)
               ___aldiv
         ___fltol
           _PWM_Max_Duty (ARG)
             ___aldiv
           ___fldiv (ARG)
             ___xxtofl (ARG)
               _PWM_Max_Duty (ARG)
                 ___aldiv
           ___flmul (ARG)
             _PWM_Max_Duty (ARG)
               ___aldiv
             __Umul8_16 (ARG)
             ___fldiv (ARG)
               ___xxtofl (ARG)
                 _PWM_Max_Duty (ARG)
                   ___aldiv
             ___xxtofl (ARG)
               _PWM_Max_Duty (ARG)
                 ___aldiv
           ___xxtofl (ARG)
             _PWM_Max_Duty (ARG)
               ___aldiv
         ___xxtofl
           _PWM_Max_Duty (ARG)
             ___aldiv
     _cocienteEntero
     _delay
     _residuo
   _setup
     _SerialBegin
       ___aldiv
     _pinMode

 Address spaces:
Name               Size   Autos  Total    Cost      Usage
BANK3               60      0       0       9        0.0%
BITBANK3            60      0       0       8        0.0%
SFR3                 0      0       0       4        0.0%
BITSFR3              0      0       0       4        0.0%
BANK2               60      0       0      11        0.0%
BITBANK2            60      0       0      10        0.0%
SFR2                 0      0       0       5        0.0%
BITSFR2              0      0       0       5        0.0%
BANK1               50     13      29       7       51.3%
BITBANK1            50      0       0       6        0.0%
SFR1                 0      0       0       2        0.0%
BITSFR1              0      0       0       2        0.0%
BANK0               50     50      50       5      100.0%
BITBANK0            50      0       0       4        0.0%
SFR0                 0      0       0       1        0.0%
BITSFR0              0      0       0       1        0.0%
COMMON               E      E       E       1      100.0%
BITCOMMON            E      0       0       0        0.0%
CODE                 0      0       0       0        0.0%
DATA                 0      0      87      12        0.0%
ABS                  0      0      87       3        0.0%
NULL                 0      0       0       0        0.0%
STACK                0      0       0       2        0.0%
EEDATA             100      0       0       0        0.0%


Microchip Technology PIC Macro Assembler V2.00 build -1524193055 
Symbol Table                                                                                   Thu Nov 15 19:11:29 2018

                 ___fldiv@aexp 004F                   ___fldiv@bexp 004E                   ___fldiv@sign 0047  
                  __CFG_CP$OFF 0000                             _A0 00C0                             l52 0FF3  
                           l60 0FFF                             l53 0F52                             l70 09BD  
                           l54 0F3D                             l71 09D4                             l63 09A8  
                           l55 0F60                             l72 09D6                             l64 09A2  
                           l56 0FDB                             l65 09B3                             l57 0FC6  
                           l49 099C                             l66 09B5                             l58 0FE9  
                           l59 0FFF                             l69 09C9                             fsr 0004  
          __Umul8_16@word_mpld 0076                            l200 01A3                            l201 01AB  
                          l210 01F3                            l202 01B3                            l211 01FB  
                          l203 01BB                            l300 0A1C                            l212 0203  
                          l204 01C3                            l301 0A03                            l213 020B  
                          l205 01CB                            l302 0A2E                            l206 01D3  
                          l214 0266                            l303 0A0F                            l207 01DB  
                          l320 0007                            l304 0A2E                            l312 0AB5  
                          l208 01E3                            l321 000E                            l313 0AF0  
                          l209 01EB                            l322 0012                            l314 0AC6  
                          l315 0ADB                            l307 0133                            l340 0970  
                          l316 0AF0                            l308 0150                            l180 0982  
                          l309 0150                            l181 0983                            l190 0266  
                          l182 0983                            l319 0007                            l191 015B  
                          _ADC 00BA                            l352 0B3F                            l328 0947  
                          l280 0BBD                            l192 0163                            l185 0AA2  
                          l337 0967                            l281 0BBD                            l193 016B  
                          l530 0D37                            l338 0967                            l290 0B7D  
                          l282 0B57                            l362 0CFB                            l194 0173  
                          l531 0D4A                            l355 0061                            l339 096E  
                          l275 0BA4                            l291 0B82                            l283 0B5C  
                          l363 0CFB                            l195 017B                            l179 097C  
                          l532 0D4B                            l372 0965                            l292 0B82  
                          l284 0B5C                            l276 0B42                            l188 0214  
                          l196 0183                            l533 0D76                            l293 0B87  
                          l285 0B61                            l277 0B49                            l349 0A5E  
                          l197 018B                            l189 0153                            l534 0D86  
                          l526 0D10                            l366 095A                            l294 0B90  
                          l286 0B6A                            l278 0B49                            l358 0C5C  
                          l198 0193                            l535 0D98                            l527 0D24  
                          l295 0B95                            l287 0B6F                            l279 0B4E  
                          l359 0C5C                            l199 019B                            l536 0DA1  
                          l528 0D87                            l296 0B95                            l288 0B6F  
                          l529 0D45                            l297 0B9A                            l289 0B74  
                          l810 02C8                            l650 0EDB                            l811 02EA  
                          l803 027A                            l651 0EF1                            l820 0391  
                          l812 046F                            l804 0290                            l652 0F1D  
                          l821 03B1                            l813 0301                            l805 028D  
                          l653 0F02                            l830 0412                            l822 0392  
                          l814 0380                            l806 0299                            l654 0F16  
                          l646 0E95                            l831 042F                            l823 03A1  
                          l815 0332                            l807 02AA                            l655 0F03  
                          l647 0F2D                            l832 044B                            l824 03B6  
                          l816 0359                            l808 02C0                            l840 0498  
                          l656 0F1C                            l648 0EF2                            l833 0457  
                          l825 03DB                            l817 034F                            l809 02BD  
                          l841 0496                            l657 0F2D                            l649 0EDA  
                          l834 045B                            l826 03D2                            l818 037B  
                          l850 07E4                            l842 04A1                            l827 03DA  
                          l819 0387                            l851 0726                            l843 04B2  
                          l828 03D9                            l860 0787                            l852 0707  
                          l844 04C7                            l829 0413                            l861 07A0  
                          l853 0716                            l845 04C5                            l862 07D7  
                          l854 072B                            l846 04D0                            l870 0DD8  
                          l863 07BB                            l855 0750                            l847 04E5  
                          l839 0483                            l871 0E65                            l864 07D7  
                          l856 0747                            l872 0DEB                            l865 07CF  
                          l857 074F                            l849 04DB                            l881 0E2D  
                          l873 0DDD                            l890 0A00                            l858 074E  
                          l882 0E2D                            l874 0DF2                            l859 0788  
                          l883 0E39                            l875 0E0E                            l884 0E5C  
                          l876 0DF3                            l868 0DBE                            l877 0E15  
                          l869 0DC6                            l878 0E22                            l887 09E2  
                          l879 0E16                            l888 09EC                            l889 09FB  
                          _PR2 0092                   __CFG_CPD$OFF 0000                            _PWM 00B6  
                  __CFG_WRT$ON 0000                            fsr0 0004                            indf 0000  
                 __CFG_FOSC$HS 0000                   ___flmul@aexp 0062                   ___flmul@bexp 0063  
                  _PWMTerminal 00C7                   ___flmul@sign 005D                   ___flmul@temp 0068  
                 ___flmul@prod 0064                   __CFG_LVP$OFF 0000                   ___fltol@exp1 006F  
                         l2000 02C0                           l2002 02D0                           l2010 02EA  
                         l2100 0466                           l2020 0320                           l2012 02EF  
                         l2004 02DC                           l2102 046F                           l2030 0349  
                         l2022 0328                           l2014 0300                           l2006 02E0  
                         l2110 0481                           l2040 036C                           l2032 034D  
                         l2024 0330                           l2016 0301                           l2008 02E9  
                         l2200 0726                           l2120 0498                           l2112 0483  
                         l2104 0470                           PORTA 0005                           l2050 0392  
                         l2042 037B                           l2034 034F                           l2026 0332  
                         l2018 0318                           l2210 074B                           l2202 072B  
                         l2130 04B2                           l2122 04A1                           l2114 0488  
                         l2106 0477                           PORTB 0006                           PORTC 0007  
                         l2052 039B                           l2060 03B1                           l2028 0337  
                         l2036 0359                           l2044 0380                           l2220 0780  
                         l2212 0750                           l2204 072C                           l2140 04D0  
                         l2132 04B7                           l2124 04A6                           l2116 048D  
                         l2108 047D                           l2300 0BC9                           PORTD 0008  
                         l2070 03D6                           l2062 03B6                           l2054 039F  
                         l2046 0387                           l2038 036B                           l2230 07B9  
                         l2214 0755                           l2222 0788                           l2206 0730  
                         l2150 04F5                           l2142 04D5                           l2134 04BC  
                         l2126 04AC                           l2118 0496                           l2302 0C3C  
                         l2310 00C4                           l2400 0970                           l2080 040B  
                         l2072 03DB                           l2064 03B7                           l2056 03A1  
                         l2048 038F                           l2240 07DB                           l2232 07BB  
                         l2224 0795                           l2216 0763                           l2208 0744  
                         l2160 0583                           l2152 0502                           l2144 04DB  
                         l2136 04C5                           l2128 04B0                           l2304 0C3F  
                         l2320 0140                           l2312 00CD                           l2090 0442  
                         l2074 03E0                           l2082 0413                           l2066 03BB  
                         l2058 03AA                           l2242 07E4                           l2234 07C9  
                         l2226 07A0                           l2218 0767                           l2170 05E5  
                         l2162 059F                           l2154 051F                           l2146 04E4  
                         l2138 04C7                           l2250 0DBE                           l2306 0C4B  
                         l2410 0A1C                           l2402 0A02                           l2330 014B  
                         l2322 0141                           l2314 012F                           l2420 0B4E  
                         l2092 044A                           l2084 0420                           l2076 03EE  
                         l2068 03CF                           l2236 07CD                           l2228 07AF  
                         l2180 0675                           l2172 0602                           l2164 05A8  
                         l2156 053B                           l2148 04E5                           l2260 0DEB  
                         l2252 0DCE                           l2244 0DA5                           l2404 0A03  
                         l2500 0AC7                           l2332 014F                           l2324 0144  
                         l2316 0133                           l2308 0062                           l2340 0163  
                         l2510 0013                           l2430 0B68                           l2422 0B55  
                         l2094 0451                           l2086 042F                           l2078 03F2  
                         l2238 07CF                           l2190 0707                           l2182 06A2  
                         l2174 061B                           l2166 05B8                           l2158 0567  
                         l2270 0E22                           l2262 0DF3                           l2254 0DD7  
                         l2246 0DAA                           l2406 0A0F                           l2502 0ACD  
                         l2326 0147                           l2318 013C                           l2350 018B  
                         l2342 016B                           l2334 0152                           l2512 0049  
                         l2440 0B7C                           l2432 0B69                           l2424 0B56  
                         l2416 0B41                           l2096 0455                           l2088 043E  
                         l2192 0710                           l2184 06C8                           l2176 0638  
                         l2168 05D5                           l2280 0E56                           l2272 0E26  
                         l2264 0DF7                           l2256 0DD8                           l2248 0DAE  
                         l2408 0A1B                           l2504 0ADB                           l2520 0F38  
                         l2328 0148                           l2360 01B3                           l2352 0193  
                         l2344 0173                           l2336 0153                           l2506 0AF1  
                         l2450 0B90                           l2442 0B7D                           l2434 0B6A  
                         l2426 0B57                           l2418 0B42                           l2098 0457  
                         l2194 0714                           l2186 06F0                           l2178 0665  
                         l2282 0E5A                           l2274 0E31                           l2266 0E05  
                         l2258 0DDD                           l2290 0C68                           l2530 0F81  
                         l2522 0F3D                           l2370 01DB                           l2362 01BB  
                         l2354 019B                           l2346 017B                           l2338 015B  
                         l2514 0986                           l1900 0D87                           l2508 0B27  
                         l2452 0B9A                           l2444 0B87                           l2436 0B74  
                         l2428 0B61                           l2460 0BA4                           l2196 0716  
                         l2188 06F9                           l2284 0E5C                           l2276 0E3B  
                         l2268 0E16                           l2292 0CDB                           l2540 0FBF  
                         l2532 0F8B                           l2524 0F4B                           l2380 0203  
                         l2372 01E3                           l2364 01C3                           l2356 01A3  
                         l2348 0183                           l2516 0995                           l1902 0D8C  
                         l2454 0BA1                           l2446 0B8E                           l2438 0B7B  
                         l1910 09DA                           l2198 071F                           l2286 0E65  
                         l2278 0E51                           l2294 0CDE                           l2470 09BD  
                         l2550 0FE9                           l2542 0FC3                           l2534 0F97  
                         l2526 0F52                           l2518 0F2E                           l2382 020B  
                         l2374 01EB                           l2366 01CB                           l2358 01AB  
                         l1904 0D98                           l2560 0A7A                           l2392 0941  
                         l2456 0BA2                           l2448 0B8F                           l1920 0A00  
                         l1912 09E2                           l2296 0CEA                           l2288 0C5D  
                         l2472 09D4                           l2480 09B3                           l2544 0FC6  
                         l2536 0FA9                           l2528 0F60                           l2552 0FF3  
                         l2384 0213                           l2376 01F3                           l2368 01D3  
                         l1906 0DA1                           l2562 0A89                           l2554 0A5F  
                         l2394 0947                           l2458 0BA3                           l1922 0A2F  
                         l1914 09E6                           l1930 0E94                           l2298 0BBE  
                         l2474 09D6                           l2466 09B6                           l2490 0AA5  
                         l2482 09B5                           l2546 0FD2                           l2538 0FBB  
                         l2650 021C                           l2378 01FB                           l2386 0214  
                         l2570 0976                           l1596 0950                           l2564 0A98  
                         l2556 0A73                           l2396 0966                           l2484 0006  
                         l1924 0A5E                           l1916 09F5                           l1908 09D8  
                         l1940 0EC5                           l1932 0E95                           l2652 0A26  
                         l2468 09B8                           l2492 0AB4                           l2476 099D  
                         l2548 0FDB                           l2572 097C                           l1870 0CFF  
                         l1598 095B                           l2566 0A9D                           l2558 0A76  
                         l2398 096E                           l2486 000E                           l2654 0BAC  
                         l1918 09FB                           l1942 0EC9                           l1950 0EF2  
                         l1934 0EBA                           l1926 0E66                           l2494 0AB5  
                         l2478 09A2                           l1880 0D2C                           l1872 0D03  
                         l1960 0F22                           l1952 0EF8                           l1944 0ED0  
                         l1936 0EBB                           l1928 0E8B                           l2496 0AB7  
                         l2488 0AA3                           l2568 0971                           l1890 0D54  
                         l1882 0D34                           l1874 0D14                           l1970 027A  
                         l1962 0267                           l1954 0F01                           l1946 0ED9  
                         l1938 0EC3                           l2498 0AC5                           l1892 0D66  
                         l1884 0D37                           l1876 0D1F                           l1868 0CFC  
                         l1972 027F                           l1980 0290                           l1964 026E  
                         l1956 0F03                           l1948 0EDB                           l1894 0D74  
                         l1886 0D45                           l1878 0D24                           l1990 02AA  
                         l1982 0299                           l1974 0284                           l1966 0274  
                         l1958 0F1D                           l1896 0D76                           l1888 0D4B  
                         l1992 02AF                           l1984 029E                           l1976 028D  
                         l1968 0278                           l1898 0D7F                           l1994 02B4  
                         l1986 02A4                           l1978 028E                           l1996 02BD  
                         l1988 02A8                           l1998 02BE                           TRISA 0085  
                         TRISB 0086                           TRISC 0087                           TRISD 0088  
                         _BRGH 04C2                           _CREN 00C4                           u2000 04D5  
                         u2001 04D4                           u2010 04DA                           u2011 04D9  
                         u2101 062A                           u2021 052D                           u2102 0631  
                         u2022 0534                           u2111 0657                           u2103 0638  
                         u2031 0549                           u2023 053B                           u2112 065E  
                         u2032 0550                           u2121 0684                           u2113 0665  
                         u2041 0575                           u2033 0557                           u1410 0D03  
                         u2210 072A                           u2130 06AE                           u2122 068B  
                         u2042 057C                           u1411 0D02                           u2211 0729  
                         u2123 0692                           u2051 0591                           u2043 0583  
                         u1500 0D8C                           u1420 0D14                           u2300 07CD  
                         u2220 0730                           u2052 0598                           u1501 0D8B  
                         u1421 0D13                           u2301 07CC                           u2221 072F  
                         u2205 0718                           u2141 06BA                           u2053 059F  
                         u1430 0D34                           u1510 09E6                           u2230 0744  
                         u2150 06D6                           u2142 06C1                           u2310 0DAA  
                         u1431 0D33                           u1511 09E5                           u2231 0743  
                         u2143 06C8                           u2135 06A9                           u2071 05C7  
                         u2311 0DA9                           u2240 074B                           u2072 05CE  
                         u1600 0EF0                           u2400 0E2C                           u2320 0DAE  
                         u2241 074A                           u2161 06E2                           u2081 05F4  
                         u2073 05D5                           u2065 05A1                           u1601 0EEF  
                         u2401 0E2B                           u2321 0DAD                           u1450 0D49  
                         u1530 09FA                           u2250 0755                           u2162 06E9  
                         u2082 05FB                           u1610 0EF8                           u2410 0E31  
                         u2330 0DCE                           u1451 0D48                           u1531 09F9  
                         u2251 0754                           u2163 06F0                           u2155 06D1  
                         u2083 0602                           u1611 0EF7                           u2411 0E30  
                         u2331 0DCD                           u1540 0A3F                           u1700 02B4  
                         u2260 0767                           u2420 0E46                           u1445 0D39  
                         u1701 02B3                           u1525 09ED                           u2261 0766  
                         u1470 0D66                           u1710 02D0                           u2270 0776  
                         u2190 0714                           u1630 0F1B                           u1550 0E8B  
                         u2430 0E56                           u2350 0DF1                           u2510 0072  
                         u1471 0D65                           u1711 02CF                           u2191 0713  
                         u2175 06F2                           u2095 0604                           u1631 0F1A  
                         u1551 0E8A                           u2431 0E55                           u2351 0DF0  
                         u2600 0B4D                           u1800 038F                           u1720 02EF  
                         u2280 0795                           u1640 0F22                           u1560 0EB1  
                         u2440 0E5A                           u2504 0C4B                           u2520 0093  
                         u1465 0D4D                           u2601 0B4C                           u1545 0A3A  
                         u1801 038E                           u1721 02EE                           u2281 0794  
                         u2185 0709                           u1641 0F21                           u1625 0F07  
                         u2441 0E59                           u2425 0E41                           u2345 0DE2  
                         u1490 0D85                           u2610 0B60                           u1730 0337  
                         u1650 0278                           u2290 07AF                           u1570 0EC9  
                         u2370 0E14                           u2450 0C68                           u2530 00A8  
                         u1491 0D84                           u1475 0D62                           u2611 0B5F  
                         u1731 0336                           u1651 0277                           u2291 07AE  
                         u2275 0771                           u1571 0EC8                           u2371 0E13  
                         u2451 0C67                           u2531 00A9                           u2515 006D  
                         u2620 0B73                           u1900 0401                           u1820 039F  
                         u1660 027F                           u1580 0ED0                           u2460 0CE7  
                         u2700 0ADA                           u2540 00CD                           u2532 00AE  
                         u1485 0D77                           u2621 0B72                           u1821 039E  
                         u1661 027E                           u2285 0791                           u1581 0ECF  
                         u1565 0EAC                           u2365 0E06                           u2461 0CE3  
                         u2701 0AD9                           u2541 00CC                           u2533 00AF  
                         u2525 008E                           u2630 0B86                           u1910 0420  
                         u1670 0284                           u2390 0E26                           u2710 0AEF  
                         u2550 00DD                           u2631 0B85                           u1911 041F  
                         u1815 0394                           u1671 0283                           u2295 07AB  
                         u2391 0E25                           u2711 0AEE                           u2720 0B01  
                         u2640 0B99                           u1920 043E                           u1840 03B5  
                         u1760 034D                           u1680 02A8                           u2480 0BC9  
                         u2560 00FE                           u2641 0B98                           u1921 043D  
                         u1905 03FC                           u1841 03B4                           u1761 034C  
                         u1745 0339                           u1681 02A7                           u2385 0E1A  
                         u2481 0BC8                           u2705 0AD6                           u2730 0B0A  
                         u1930 0455                           u1850 03BB                           u1690 02AF  
                         u2490 0C48                           u2474 0CEA                           u2650 09D3  
                         u2570 0113                           u1931 0454                           u1915 041C  
                         u1851 03BA                           u1835 03A3                           u1755 0342  
                         u1691 02AE                           u1595 0EDC                           u2491 0C44  
                         u2651 09D2                           u2715 0AEB                           u2571 0114  
                         u2555 00D8                           u2740 0023                           u1860 03CF  
                         u1780 036B                           u1940 0481                           u2660 09B2  
                         u2580 013C                           u2572 0119                           u2725 0AFC  
                         u1925 043A                           u1861 03CE                           u1781 036A  
                         u1941 0480                           u2661 09B1                           u2581 013B  
                         u2573 011A                           u2565 00F9                           u2750 002C  
                         u2590 096D                           u2670 000D                           u1870 03D6  
                         u1790 0386                           u1950 0488                           u2735 0B05  
                         u2591 096C                           u2671 000C                           u1871 03D5  
                         u1791 0385                           u1775 0351                           u1951 0487  
                         u2655 09CF                           u1880 03E0                           u1960 048D  
                         u2680 0AB3                           u2760 0F38                           u2745 001E  
                         u1881 03DF                           u1785 0367                           u1961 048C  
                         u2681 0AB2                           u2665 09AE                           u2761 0F37  
                         u1890 03F2                           u1970 04B0                           u2690 0AC4  
                         u2770 0F5F                           u2755 0027                           u1891 03F1  
                         u1971 04AF                           u2691 0AC3                           u2771 0F5E  
                         u1980 04B7                           u2780 0FE8                           u1981 04B6  
                         u2685 0AAF                           u2781 0FE7                           u1990 04BC  
                         u1991 04BB                           u2695 0AC0                           u2775 0F5B  
                         u2785 0FE4                           _RCIF 0065                   _PWM_Max_Duty 0A2F  
                         _SPEN 00C7                           _TRMT 04C1                           _TXEN 04C5  
                         _SYNC 04C4                           _main 0971                           _freq 00C3  
                         _loop 0F2E                           btemp 007E                           start 0000  
              ___fldiv@new_exp 0048                  ___fltol@sign1 006E                __end_of___aldiv 0DA2  
                        ?_main 0070                          _CCP1X 00BD                __end_of___fldiv 0470  
                        _CCP1Y 00BC                          _CCP2X 00ED                          _CCP2Y 00EC  
                        ?_loop 0070                  __CFG_WDTE$OFF 0000                __end_of___flmul 07E5  
              __end_of___fltol 0F2E                          _RCREG 001A                          _SPBRG 0099  
                        _PORTE 0009                          _TRISE 0089                          _TXREG 0019  
           __size_of_PWM1_Init 004F             __size_of_PWM1_Duty 009F                    ?_PWM1_Start 0070  
           __size_of_PWM2_Init 004F             __size_of_PWM2_Duty 009F                    ?_PWM2_Start 0070  
                        _delay 0AA3                __end_of_pinMode 0267                          _setup 0986  
               __CFG_BOREN$OFF 0000                __end_of_residuo 09B6                          loop@i 00AF  
                        status 0003                          wtemp0 007E           __size_of_analogWrite 002E  
              __initialization 07E5                   __end_of_main 0986                   __end_of_loop 1000  
                       ??_main 007E                         ??_loop 00AD                         ?_delay 0070  
                       _ADCON0 001F                         _ADCON1 009F                         _ADCLSB 00BE  
                       _ADCMSB 00BF                         _CCP1M2 00BA                         _CCP1M3 00BB  
                       _CCP2M2 00EA                         _CCP2M3 00EB                         _ADRESH 001E  
                       _ADRESL 009E                         _CCPR1L 0015                         _CCPR2L 001B  
                       ?_setup 0070                  ??_SerialBegin 002A                _SerialAvailable 0941  
                       _TMR2ON 0092                         _TRISC1 0439                         _TRISC2 043A  
                       _TRISC6 043E                         _PWMLSB 00BC                         _TRISC7 043F  
                       _PWMMSB 00BD               __end_of___xxtofl 0E66                  ??_SerialWrite 0070  
                   _SerialRead 0966                 __CFG_PWRTE$OFF 0000             cocienteEntero@cont 0074  
            __end_of_PWM1_Init 0B40              __end_of_PWM1_Duty 0C5D              __end_of_PWM2_Init 0062  
            __end_of_PWM2_Duty 0CFC                      ??___aldiv 0078                      ??___fldiv 003E  
          __size_of_PWM1_Start 000B                      ??___flmul 0058                      ??___fltol 00A0  
__size_of_configuracionInicial 0044            __size_of_PWM2_Start 000B                         _buffer 00C8  
                       delay@i 0075                         delay@j 0073              analogRead@channel 0074  
                    ??_pinMode 0071             __size_of__Umul8_16 002A                      ??_residuo 0074  
                 ___xxtofl@arg 0032                   ___xxtofl@exp 0031                   ___xxtofl@val 0028  
      __end_of__initialization 07FC            SerialBegin@baudrate 0026                     ___fltol@f1 006A  
                  pinMode@mode 0070            __end_of_SerialBegin 0151                 __pcstackCOMMON 0070  
                 __pidataBANK1 0003                  __end_of_delay 0AF1            __end_of_SerialWrite 0013  
                __end_of_setup 099D        __end_of_SerialAvailable 0948                        ??_delay 0072  
                      ??_setup 007B                     __pbssBANK1 00B3                     _analogRead 0B40  
                  ?_SerialRead 0070              __end_of__Umul8_16 0A01                     __pmaintext 0971  
      __size_of_cocienteEntero 0021                        _T2CKPS0 0090                        _T2CKPS1 0091  
                    ?___xxtofl 0028                   ??_PWM1_Start 0070                   ??_PWM2_Start 0070  
    cocienteEntero@denominator 0072                    _SerialBegin 0062                    _SerialWrite 0005  
           residuo@denominator 0072                        ___aldiv 0CFC            cocienteEntero@temp1 0076  
                      ___fldiv 0267                        ___flmul 0470                        ___fltol 0E66  
           __end_of_PWM1_Start 095B             __end_of_PWM2_Start 0966                        __ptext1 0986  
                      __ptext2 0151                        __ptext3 0062                        __ptext4 0F2E  
                      __ptext5 099D                        __ptext6 0AA3                        __ptext7 09B6  
                      __ptext8 0A01                        __ptext9 0C5D                     ??___xxtofl 002C  
                      _pinMode 0151                     delay@milis 0070               ___aldiv@dividend 0074  
          __size_of_SerialRead 000B                        _residuo 099D               ?_SerialAvailable 0070  
                      clrloop0 0949           end_of_initialization 07FC                  ??_analogWrite 00AB  
                  ?_analogRead 0070               ___aldiv@quotient 0022                      _PWM1_Init 0AF1  
                    _PWM1_Duty 0BBE                      _PWM2_Init 0013                      _PWM2_Duty 0C5D  
                    _PORTBbits 0006                      _PORTCbits 0007                      _PORTDbits 0008  
                ___xxtofl@sign 0030                      _TRISBbits 0086                      _TRISCbits 0087  
                    _TRISDbits 0088                    ___fldiv@grs 004A   __end_of_configuracionInicial 0AA3  
                  ___fldiv@rem 0043        cocienteEntero@numerator 0070                    ___flmul@grs 005E  
          __end_of_analogWrite 0A2F                 _cocienteEntero 09B6                     ?_PWM1_Init 0026  
                   ?_PWM1_Duty 00A5                     ?_PWM2_Init 0026                     ?_PWM2_Duty 00A5  
          __size_of_analogRead 007E            start_initialization 07E5                  ?_PWM_Max_Duty 0026  
                 ??_SerialRead 0070         __end_of_cocienteEntero 09D7                      __Umul8_16 09D7  
                  __pdataBANK1 00C7                      ___fldiv@a 0036                      ___fldiv@b 003A  
                    ___flmul@a 0054                      ___flmul@b 0050                      ___latbits 0002  
                __pcstackBANK0 0020                  __pcstackBANK1 00A0                     pinMode@pin 0073  
              SerialWrite@data 0070             __end_of_SerialRead 0971              __size_of___xxtofl 00C4  
               ??_PWM_Max_Duty 0079                   ?_SerialBegin 0026                    _analogWrite 0A01  
                    __pnvBANK1 00C3                   ?_SerialWrite 0070               residuo@numerator 0070  
                     ?___aldiv 0070                       ?___fldiv 0036                       ?___flmul 0050  
                 SerialBegin@x 0079                       ?___fltol 006A           _configuracionInicial 0A5F  
              ?_cocienteEntero 0070                     ?__Umul8_16 0070                    ??_PWM1_Init 0079  
                  ??_PWM1_Duty 00A7                    ??_PWM2_Init 0079                    ??_PWM2_Duty 00A7  
                     ?_pinMode 0070                       ?_residuo 0070                 __size_of_delay 004E  
               __size_of_setup 0017                ___aldiv@divisor 0070                ___aldiv@counter 0020  
                 ??_analogRead 0072                      clear_ram0 0948                  PWM1_Duty@duty 00A5  
        ?_configuracionInicial 0070                      _vectorOut 00B8                  PWM2_Duty@duty 00A5  
                   _ADCON0bits 001F             __end_of_analogRead 0BBE       __size_of_SerialAvailable 0007  
                     _Operator 00C2                       _Terminal 00C1                    ??__Umul8_16 0072  
             __size_of___aldiv 00A6           __end_of_PWM_Max_Duty 0A5F               __size_of___fldiv 0209  
             __size_of___flmul 0375               __size_of___fltol 00C8                       ___xxtofl 0DA2  
             __size_of_pinMode 0116                       __ptext10 0BBE                       __ptext11 0DA2  
                     __ptext20 0941                       __ptext12 0E66                       __ptext21 0A5F  
                     __ptext13 0470                       __ptext22 095B                       __ptext14 09D7  
                     __ptext23 0013                       __ptext15 0267                       __ptext24 0950  
                     __ptext16 0A2F                       __ptext25 0AF1                       __ptext17 0B40  
                     __ptext26 0CFC                       __ptext18 0005                       __ptext19 0966  
             __size_of_residuo 0019                   residuo@temp1 0074                  __size_of_main 0015  
                __size_of_loop 00D2           __size_of_SerialBegin 00EF                   PWM1_Init@fre 0026  
       ??_configuracionInicial 007D           __size_of_SerialWrite 000E                       _vectorIn 00B3  
                 PWM2_Init@fre 0026               analogWrite@value 00A9                       loop@i_90 00B1  
                 ?_analogWrite 00A9               ??_cocienteEntero 0074              ??_SerialAvailable 0070  
       __Umul8_16@multiplicand 0070                   ___aldiv@sign 0021                     _PWM1_Start 0950  
                   _PWM2_Start 095B                 analogWrite@pin 007D           __Umul8_16@multiplier 0078  
        __size_of_PWM_Max_Duty 0030              __Umul8_16@product 0074  
